                              1 ;--------------------------------------------------------
                              2 ; File Created by SDCC : free open source ANSI-C Compiler
                              3 ; Version 3.6.0 #9615 (Linux)
                              4 ;--------------------------------------------------------
                              5 	.module main
                              6 	.optsdcc -mgbz80
                              7 	
                              8 ;--------------------------------------------------------
                              9 ; Public variables in this module
                             10 ;--------------------------------------------------------
                             11 	.globl _main
                             12 	.globl _performantDelay
                             13 	.globl _move_sprite
                             14 	.globl _set_sprite_tile
                             15 	.globl _set_sprite_data
                             16 	.globl _wait_vbl_done
                             17 	.globl _j
                             18 	.globl _i
                             19 	.globl _gameTile
                             20 ;--------------------------------------------------------
                             21 ; ram data
                             22 ;--------------------------------------------------------
                             23 	.area _DATA
   0000                      24 _gameTile::
   0000                      25 	.ds 96
   0060                      26 _i::
   0060                      27 	.ds 1
   0061                      28 _j::
   0061                      29 	.ds 1
                             30 ;--------------------------------------------------------
                             31 ; absolute external ram data
                             32 ;--------------------------------------------------------
                             33 	.area _DABS (ABS)
                             34 ;--------------------------------------------------------
                             35 ; global & static initialisations
                             36 ;--------------------------------------------------------
                             37 	.area _HOME
                             38 	.area _GSINIT
                             39 	.area _GSFINAL
                             40 	.area _GSINIT
                             41 ;gameTile.c:26: unsigned char gameTile[] =
   0000 21r00r00             42 	ld	hl,#_gameTile
   0003 36 00                43 	ld	(hl),#0x00
   0005 21r01r00             44 	ld	hl,#(_gameTile + 0x0001)
   0008 36 00                45 	ld	(hl),#0x00
   000A 21r02r00             46 	ld	hl,#(_gameTile + 0x0002)
   000D 36 00                47 	ld	(hl),#0x00
   000F 21r03r00             48 	ld	hl,#(_gameTile + 0x0003)
   0012 36 00                49 	ld	(hl),#0x00
   0014 21r04r00             50 	ld	hl,#(_gameTile + 0x0004)
   0017 36 00                51 	ld	(hl),#0x00
   0019 21r05r00             52 	ld	hl,#(_gameTile + 0x0005)
   001C 36 00                53 	ld	(hl),#0x00
   001E 21r06r00             54 	ld	hl,#(_gameTile + 0x0006)
   0021 36 00                55 	ld	(hl),#0x00
   0023 21r07r00             56 	ld	hl,#(_gameTile + 0x0007)
   0026 36 00                57 	ld	(hl),#0x00
   0028 21r08r00             58 	ld	hl,#(_gameTile + 0x0008)
   002B 36 00                59 	ld	(hl),#0x00
   002D 21r09r00             60 	ld	hl,#(_gameTile + 0x0009)
   0030 36 00                61 	ld	(hl),#0x00
   0032 21r0Ar00             62 	ld	hl,#(_gameTile + 0x000a)
   0035 36 00                63 	ld	(hl),#0x00
   0037 21r0Br00             64 	ld	hl,#(_gameTile + 0x000b)
   003A 36 00                65 	ld	(hl),#0x00
   003C 21r0Cr00             66 	ld	hl,#(_gameTile + 0x000c)
   003F 36 00                67 	ld	(hl),#0x00
   0041 21r0Dr00             68 	ld	hl,#(_gameTile + 0x000d)
   0044 36 00                69 	ld	(hl),#0x00
   0046 21r0Er00             70 	ld	hl,#(_gameTile + 0x000e)
   0049 36 00                71 	ld	(hl),#0x00
   004B 21r0Fr00             72 	ld	hl,#(_gameTile + 0x000f)
   004E 36 00                73 	ld	(hl),#0x00
   0050 21r10r00             74 	ld	hl,#(_gameTile + 0x0010)
   0053 36 FF                75 	ld	(hl),#0xff
   0055 21r11r00             76 	ld	hl,#(_gameTile + 0x0011)
   0058 36 FF                77 	ld	(hl),#0xff
   005A 21r12r00             78 	ld	hl,#(_gameTile + 0x0012)
   005D 36 81                79 	ld	(hl),#0x81
   005F 21r13r00             80 	ld	hl,#(_gameTile + 0x0013)
   0062 36 80                81 	ld	(hl),#0x80
   0064 21r14r00             82 	ld	hl,#(_gameTile + 0x0014)
   0067 36 89                83 	ld	(hl),#0x89
   0069 21r15r00             84 	ld	hl,#(_gameTile + 0x0015)
   006C 36 88                85 	ld	(hl),#0x88
   006E 21r16r00             86 	ld	hl,#(_gameTile + 0x0016)
   0071 36 99                87 	ld	(hl),#0x99
   0073 21r17r00             88 	ld	hl,#(_gameTile + 0x0017)
   0076 36 98                89 	ld	(hl),#0x98
   0078 21r18r00             90 	ld	hl,#(_gameTile + 0x0018)
   007B 36 89                91 	ld	(hl),#0x89
   007D 21r19r00             92 	ld	hl,#(_gameTile + 0x0019)
   0080 36 88                93 	ld	(hl),#0x88
   0082 21r1Ar00             94 	ld	hl,#(_gameTile + 0x001a)
   0085 36 89                95 	ld	(hl),#0x89
   0087 21r1Br00             96 	ld	hl,#(_gameTile + 0x001b)
   008A 36 88                97 	ld	(hl),#0x88
   008C 21r1Cr00             98 	ld	hl,#(_gameTile + 0x001c)
   008F 36 89                99 	ld	(hl),#0x89
   0091 21r1Dr00            100 	ld	hl,#(_gameTile + 0x001d)
   0094 36 88               101 	ld	(hl),#0x88
   0096 21r1Er00            102 	ld	hl,#(_gameTile + 0x001e)
   0099 36 81               103 	ld	(hl),#0x81
   009B 21r1Fr00            104 	ld	hl,#(_gameTile + 0x001f)
   009E 36 FE               105 	ld	(hl),#0xfe
   00A0 21r20r00            106 	ld	hl,#(_gameTile + 0x0020)
   00A3 36 FF               107 	ld	(hl),#0xff
   00A5 21r21r00            108 	ld	hl,#(_gameTile + 0x0021)
   00A8 36 FF               109 	ld	(hl),#0xff
   00AA 21r22r00            110 	ld	hl,#(_gameTile + 0x0022)
   00AD 36 81               111 	ld	(hl),#0x81
   00AF 21r23r00            112 	ld	hl,#(_gameTile + 0x0023)
   00B2 36 01               113 	ld	(hl),#0x01
   00B4 21r24r00            114 	ld	hl,#(_gameTile + 0x0024)
   00B7 36 99               115 	ld	(hl),#0x99
   00B9 21r25r00            116 	ld	hl,#(_gameTile + 0x0025)
   00BC 36 19               117 	ld	(hl),#0x19
   00BE 21r26r00            118 	ld	hl,#(_gameTile + 0x0026)
   00C1 36 85               119 	ld	(hl),#0x85
   00C3 21r27r00            120 	ld	hl,#(_gameTile + 0x0027)
   00C6 36 05               121 	ld	(hl),#0x05
   00C8 21r28r00            122 	ld	hl,#(_gameTile + 0x0028)
   00CB 36 89               123 	ld	(hl),#0x89
   00CD 21r29r00            124 	ld	hl,#(_gameTile + 0x0029)
   00D0 36 09               125 	ld	(hl),#0x09
   00D2 21r2Ar00            126 	ld	hl,#(_gameTile + 0x002a)
   00D5 36 91               127 	ld	(hl),#0x91
   00D7 21r2Br00            128 	ld	hl,#(_gameTile + 0x002b)
   00DA 36 11               129 	ld	(hl),#0x11
   00DC 21r2Cr00            130 	ld	hl,#(_gameTile + 0x002c)
   00DF 36 9D               131 	ld	(hl),#0x9d
   00E1 21r2Dr00            132 	ld	hl,#(_gameTile + 0x002d)
   00E4 36 1D               133 	ld	(hl),#0x1d
   00E6 21r2Er00            134 	ld	hl,#(_gameTile + 0x002e)
   00E9 36 81               135 	ld	(hl),#0x81
   00EB 21r2Fr00            136 	ld	hl,#(_gameTile + 0x002f)
   00EE 36 7F               137 	ld	(hl),#0x7f
   00F0 21r30r00            138 	ld	hl,#(_gameTile + 0x0030)
   00F3 36 81               139 	ld	(hl),#0x81
   00F5 21r31r00            140 	ld	hl,#(_gameTile + 0x0031)
   00F8 36 FE               141 	ld	(hl),#0xfe
   00FA 21r32r00            142 	ld	hl,#(_gameTile + 0x0032)
   00FD 36 81               143 	ld	(hl),#0x81
   00FF 21r33r00            144 	ld	hl,#(_gameTile + 0x0033)
   0102 36 80               145 	ld	(hl),#0x80
   0104 21r34r00            146 	ld	hl,#(_gameTile + 0x0034)
   0107 36 99               147 	ld	(hl),#0x99
   0109 21r35r00            148 	ld	hl,#(_gameTile + 0x0035)
   010C 36 98               149 	ld	(hl),#0x98
   010E 21r36r00            150 	ld	hl,#(_gameTile + 0x0036)
   0111 36 85               151 	ld	(hl),#0x85
   0113 21r37r00            152 	ld	hl,#(_gameTile + 0x0037)
   0116 36 84               153 	ld	(hl),#0x84
   0118 21r38r00            154 	ld	hl,#(_gameTile + 0x0038)
   011B 36 99               155 	ld	(hl),#0x99
   011D 21r39r00            156 	ld	hl,#(_gameTile + 0x0039)
   0120 36 98               157 	ld	(hl),#0x98
   0122 21r3Ar00            158 	ld	hl,#(_gameTile + 0x003a)
   0125 36 85               159 	ld	(hl),#0x85
   0127 21r3Br00            160 	ld	hl,#(_gameTile + 0x003b)
   012A 36 84               161 	ld	(hl),#0x84
   012C 21r3Cr00            162 	ld	hl,#(_gameTile + 0x003c)
   012F 36 99               163 	ld	(hl),#0x99
   0131 21r3Dr00            164 	ld	hl,#(_gameTile + 0x003d)
   0134 36 98               165 	ld	(hl),#0x98
   0136 21r3Er00            166 	ld	hl,#(_gameTile + 0x003e)
   0139 36 FF               167 	ld	(hl),#0xff
   013B 21r3Fr00            168 	ld	hl,#(_gameTile + 0x003f)
   013E 36 FF               169 	ld	(hl),#0xff
   0140 21r40r00            170 	ld	hl,#(_gameTile + 0x0040)
   0143 36 81               171 	ld	(hl),#0x81
   0145 21r41r00            172 	ld	hl,#(_gameTile + 0x0041)
   0148 36 7F               173 	ld	(hl),#0x7f
   014A 21r42r00            174 	ld	hl,#(_gameTile + 0x0042)
   014D 36 81               175 	ld	(hl),#0x81
   014F 21r43r00            176 	ld	hl,#(_gameTile + 0x0043)
   0152 36 01               177 	ld	(hl),#0x01
   0154 21r44r00            178 	ld	hl,#(_gameTile + 0x0044)
   0157 36 89               179 	ld	(hl),#0x89
   0159 21r45r00            180 	ld	hl,#(_gameTile + 0x0045)
   015C 36 09               181 	ld	(hl),#0x09
   015E 21r46r00            182 	ld	hl,#(_gameTile + 0x0046)
   0161 36 99               183 	ld	(hl),#0x99
   0163 21r47r00            184 	ld	hl,#(_gameTile + 0x0047)
   0166 36 19               185 	ld	(hl),#0x19
   0168 21r48r00            186 	ld	hl,#(_gameTile + 0x0048)
   016B 36 BD               187 	ld	(hl),#0xbd
   016D 21r49r00            188 	ld	hl,#(_gameTile + 0x0049)
   0170 36 3D               189 	ld	(hl),#0x3d
   0172 21r4Ar00            190 	ld	hl,#(_gameTile + 0x004a)
   0175 36 89               191 	ld	(hl),#0x89
   0177 21r4Br00            192 	ld	hl,#(_gameTile + 0x004b)
   017A 36 09               193 	ld	(hl),#0x09
   017C 21r4Cr00            194 	ld	hl,#(_gameTile + 0x004c)
   017F 36 89               195 	ld	(hl),#0x89
   0181 21r4Dr00            196 	ld	hl,#(_gameTile + 0x004d)
   0184 36 09               197 	ld	(hl),#0x09
   0186 21r4Er00            198 	ld	hl,#(_gameTile + 0x004e)
   0189 36 FF               199 	ld	(hl),#0xff
   018B 21r4Fr00            200 	ld	hl,#(_gameTile + 0x004f)
   018E 36 FF               201 	ld	(hl),#0xff
   0190 21r50r00            202 	ld	hl,#(_gameTile + 0x0050)
   0193 36 00               203 	ld	(hl),#0x00
   0195 21r51r00            204 	ld	hl,#(_gameTile + 0x0051)
   0198 36 00               205 	ld	(hl),#0x00
   019A 21r52r00            206 	ld	hl,#(_gameTile + 0x0052)
   019D 36 00               207 	ld	(hl),#0x00
   019F 21r53r00            208 	ld	hl,#(_gameTile + 0x0053)
   01A2 36 00               209 	ld	(hl),#0x00
   01A4 21r54r00            210 	ld	hl,#(_gameTile + 0x0054)
   01A7 36 00               211 	ld	(hl),#0x00
   01A9 21r55r00            212 	ld	hl,#(_gameTile + 0x0055)
   01AC 36 00               213 	ld	(hl),#0x00
   01AE 21r56r00            214 	ld	hl,#(_gameTile + 0x0056)
   01B1 36 00               215 	ld	(hl),#0x00
   01B3 21r57r00            216 	ld	hl,#(_gameTile + 0x0057)
   01B6 36 00               217 	ld	(hl),#0x00
   01B8 21r58r00            218 	ld	hl,#(_gameTile + 0x0058)
   01BB 36 00               219 	ld	(hl),#0x00
   01BD 21r59r00            220 	ld	hl,#(_gameTile + 0x0059)
   01C0 36 00               221 	ld	(hl),#0x00
   01C2 21r5Ar00            222 	ld	hl,#(_gameTile + 0x005a)
   01C5 36 00               223 	ld	(hl),#0x00
   01C7 21r5Br00            224 	ld	hl,#(_gameTile + 0x005b)
   01CA 36 00               225 	ld	(hl),#0x00
   01CC 21r5Cr00            226 	ld	hl,#(_gameTile + 0x005c)
   01CF 36 00               227 	ld	(hl),#0x00
   01D1 21r5Dr00            228 	ld	hl,#(_gameTile + 0x005d)
   01D4 36 00               229 	ld	(hl),#0x00
   01D6 21r5Er00            230 	ld	hl,#(_gameTile + 0x005e)
   01D9 36 00               231 	ld	(hl),#0x00
   01DB 21r5Fr00            232 	ld	hl,#(_gameTile + 0x005f)
   01DE 36 00               233 	ld	(hl),#0x00
                            234 ;--------------------------------------------------------
                            235 ; Home
                            236 ;--------------------------------------------------------
                            237 	.area _HOME
                            238 	.area _HOME
                            239 ;--------------------------------------------------------
                            240 ; code
                            241 ;--------------------------------------------------------
                            242 	.area _CODE
                            243 ;main.c:6: void performantDelay(UINT8 numloops){
                            244 ;	---------------------------------
                            245 ; Function performantDelay
                            246 ; ---------------------------------
   0000                     247 _performantDelay::
                            248 ;main.c:9: for(i=0;i<numloops;i++){
   0000 0E 00               249 	ld	c,#0x00
   0002                     250 00103$:
   0002 79                  251 	ld	a,c
   0003 F8 02               252 	ldhl	sp,#2
   0005 96                  253 	sub	a, (hl)
   0006 D0                  254 	ret	NC
                            255 ;main.c:10: wait_vbl_done();
   0007 C5                  256 	push	bc
   0008 CDr00r00            257 	call	_wait_vbl_done
   000B C1                  258 	pop	bc
                            259 ;main.c:9: for(i=0;i<numloops;i++){
   000C 0C                  260 	inc	c
   000D 18 F3               261 	jr	00103$
   000F C9                  262 	ret
                            263 ;main.c:15: void main(){
                            264 ;	---------------------------------
                            265 ; Function main
                            266 ; ---------------------------------
   0010                     267 _main::
                            268 ;main.c:16: set_sprite_data(0, 5, gameTile);
   0010 21r00r00            269 	ld	hl,#_gameTile
   0013 E5                  270 	push	hl
   0014 21 00 05            271 	ld	hl,#0x0500
   0017 E5                  272 	push	hl
   0018 CDr00r00            273 	call	_set_sprite_data
   001B E8 04               274 	add	sp, #4
                            275 ;main.c:18: set_sprite_tile(0, 1);
   001D 21 00 01            276 	ld	hl,#0x0100
   0020 E5                  277 	push	hl
   0021 CDr00r00            278 	call	_set_sprite_tile
   0024 E8 02               279 	add	sp, #2
                            280 ;main.c:19: set_sprite_tile(1, 2);
   0026 21 01 02            281 	ld	hl,#0x0201
   0029 E5                  282 	push	hl
   002A CDr00r00            283 	call	_set_sprite_tile
   002D E8 02               284 	add	sp, #2
                            285 ;main.c:21: set_sprite_tile(2, 3);
   002F 21 02 03            286 	ld	hl,#0x0302
   0032 E5                  287 	push	hl
   0033 CDr00r00            288 	call	_set_sprite_tile
   0036 E8 02               289 	add	sp, #2
                            290 ;main.c:22: set_sprite_tile(3, 4);
   0038 21 03 04            291 	ld	hl,#0x0403
   003B E5                  292 	push	hl
   003C CDr00r00            293 	call	_set_sprite_tile
   003F E8 02               294 	add	sp, #2
                            295 ;main.c:24: move_sprite(0, 75, 75);
   0041 21 4B 4B            296 	ld	hl,#0x4b4b
   0044 E5                  297 	push	hl
   0045 AF                  298 	xor	a, a
   0046 F5                  299 	push	af
   0047 33                  300 	inc	sp
   0048 CDr00r00            301 	call	_move_sprite
   004B E8 03               302 	add	sp, #3
                            303 ;main.c:25: move_sprite(1, 75 + 8, 75);
   004D 21 53 4B            304 	ld	hl,#0x4b53
   0050 E5                  305 	push	hl
   0051 3E 01               306 	ld	a,#0x01
   0053 F5                  307 	push	af
   0054 33                  308 	inc	sp
   0055 CDr00r00            309 	call	_move_sprite
   0058 E8 03               310 	add	sp, #3
                            311 ;main.c:26: move_sprite(2, 75, 75 + 8);
   005A 21 4B 53            312 	ld	hl,#0x534b
   005D E5                  313 	push	hl
   005E 3E 02               314 	ld	a,#0x02
   0060 F5                  315 	push	af
   0061 33                  316 	inc	sp
   0062 CDr00r00            317 	call	_move_sprite
   0065 E8 03               318 	add	sp, #3
                            319 ;main.c:27: move_sprite(3, 75 + 8, 75 + 8);
   0067 21 53 53            320 	ld	hl,#0x5353
   006A E5                  321 	push	hl
   006B 3E 03               322 	ld	a,#0x03
   006D F5                  323 	push	af
   006E 33                  324 	inc	sp
   006F CDr00r00            325 	call	_move_sprite
   0072 E8 03               326 	add	sp, #3
                            327 ;main.c:30: SHOW_SPRITES;
   0074 11 40 FF            328 	ld	de,#0xff40
   0077 1A                  329 	ld	a,(de)
   0078 4F                  330 	ld	c,a
   0079 06 00               331 	ld	b,#0x00
   007B 79                  332 	ld	a,c
   007C CB CF               333 	set	1, a
   007E 4F                  334 	ld	c,a
   007F 21 40 FF            335 	ld	hl,#0xff40
   0082 71                  336 	ld	(hl),c
                            337 ;main.c:32: while(1){
   0083                     338 00102$:
                            339 ;main.c:33: performantDelay(1);
   0083 3E 01               340 	ld	a,#0x01
   0085 F5                  341 	push	af
   0086 33                  342 	inc	sp
   0087 CDr00r00            343 	call	_performantDelay
   008A 33                  344 	inc	sp
   008B 18 F6               345 	jr	00102$
   008D C9                  346 	ret
                            347 	.area _CODE
                            348 	.area _CABS (ABS)
