                              1 ;--------------------------------------------------------
                              2 ; File Created by SDCC : free open source ANSI-C Compiler
                              3 ; Version 3.5.0 #9253 (Mar 19 2016) (Linux)
                              4 ; This file was generated Wed Nov 20 16:47:56 2019
                              5 ;--------------------------------------------------------
                              6 	.module main
                              7 	.optsdcc -mgbz80
                              8 	
                              9 ;--------------------------------------------------------
                             10 ; Public variables in this module
                             11 ;--------------------------------------------------------
                             12 	.globl _main
                             13 	.globl _setupSpider
                             14 	.globl _moveGameCharacter
                             15 	.globl _moveGameCharAnim
                             16 	.globl _performantDelay
                             17 	.globl _move_sprite
                             18 	.globl _set_sprite_tile
                             19 	.globl _set_sprite_data
                             20 	.globl _wait_vbl_done
                             21 	.globl _joypad
                             22 	.globl _spider
                             23 	.globl _timer
                             24 	.globl _sprite
                             25 ;--------------------------------------------------------
                             26 ; ram data
                             27 ;--------------------------------------------------------
                             28 	.area _DATA
   0000                      29 _sprite::
   0000                      30 	.ds 80
   0050                      31 _timer::
   0050                      32 	.ds 1
   0051                      33 _spider::
   0051                      34 	.ds 9
                             35 ;--------------------------------------------------------
                             36 ; absolute external ram data
                             37 ;--------------------------------------------------------
                             38 	.area _DABS (ABS)
                             39 ;--------------------------------------------------------
                             40 ; global & static initialisations
                             41 ;--------------------------------------------------------
                             42 	.area _HOME
                             43 	.area _GSINIT
                             44 	.area _GSFINAL
                             45 	.area _GSINIT
                             46 ;gameSprite.c:26: unsigned char sprite[] =
   0000 21r00r00             47 	ld	hl,#_sprite
   0003 36 00                48 	ld	(hl),#0x00
   0005 01r01r00             49 	ld	bc,#_sprite + 1
   0008 AF                   50 	xor	a, a
   0009 02                   51 	ld	(bc),a
   000A 01r02r00             52 	ld	bc,#_sprite + 2
   000D AF                   53 	xor	a, a
   000E 02                   54 	ld	(bc),a
   000F 01r03r00             55 	ld	bc,#_sprite + 3
   0012 AF                   56 	xor	a, a
   0013 02                   57 	ld	(bc),a
   0014 01r04r00             58 	ld	bc,#_sprite + 4
   0017 AF                   59 	xor	a, a
   0018 02                   60 	ld	(bc),a
   0019 01r05r00             61 	ld	bc,#_sprite + 5
   001C AF                   62 	xor	a, a
   001D 02                   63 	ld	(bc),a
   001E 01r06r00             64 	ld	bc,#_sprite + 6
   0021 AF                   65 	xor	a, a
   0022 02                   66 	ld	(bc),a
   0023 01r07r00             67 	ld	bc,#_sprite + 7
   0026 AF                   68 	xor	a, a
   0027 02                   69 	ld	(bc),a
   0028 01r08r00             70 	ld	bc,#_sprite + 8
   002B AF                   71 	xor	a, a
   002C 02                   72 	ld	(bc),a
   002D 01r09r00             73 	ld	bc,#_sprite + 9
   0030 AF                   74 	xor	a, a
   0031 02                   75 	ld	(bc),a
   0032 01r0Ar00             76 	ld	bc,#_sprite + 10
   0035 AF                   77 	xor	a, a
   0036 02                   78 	ld	(bc),a
   0037 01r0Br00             79 	ld	bc,#_sprite + 11
   003A AF                   80 	xor	a, a
   003B 02                   81 	ld	(bc),a
   003C 01r0Cr00             82 	ld	bc,#_sprite + 12
   003F AF                   83 	xor	a, a
   0040 02                   84 	ld	(bc),a
   0041 01r0Dr00             85 	ld	bc,#_sprite + 13
   0044 AF                   86 	xor	a, a
   0045 02                   87 	ld	(bc),a
   0046 01r0Er00             88 	ld	bc,#_sprite + 14
   0049 AF                   89 	xor	a, a
   004A 02                   90 	ld	(bc),a
   004B 01r0Fr00             91 	ld	bc,#_sprite + 15
   004E AF                   92 	xor	a, a
   004F 02                   93 	ld	(bc),a
   0050 21r10r00             94 	ld	hl,#(_sprite + 0x0010)
   0053 36 18                95 	ld	(hl),#0x18
   0055 21r11r00             96 	ld	hl,#(_sprite + 0x0011)
   0058 36 18                97 	ld	(hl),#0x18
   005A 21r12r00             98 	ld	hl,#(_sprite + 0x0012)
   005D 36 18                99 	ld	(hl),#0x18
   005F 21r13r00            100 	ld	hl,#(_sprite + 0x0013)
   0062 36 18               101 	ld	(hl),#0x18
   0064 21r14r00            102 	ld	hl,#(_sprite + 0x0014)
   0067 36 E7               103 	ld	(hl),#0xE7
   0069 21r15r00            104 	ld	hl,#(_sprite + 0x0015)
   006C 36 FF               105 	ld	(hl),#0xFF
   006E 21r16r00            106 	ld	hl,#(_sprite + 0x0016)
   0071 36 24               107 	ld	(hl),#0x24
   0073 21r17r00            108 	ld	hl,#(_sprite + 0x0017)
   0076 36 3C               109 	ld	(hl),#0x3C
   0078 21r18r00            110 	ld	hl,#(_sprite + 0x0018)
   007B 36 42               111 	ld	(hl),#0x42
   007D 21r19r00            112 	ld	hl,#(_sprite + 0x0019)
   0080 36 7E               113 	ld	(hl),#0x7E
   0082 21r1Ar00            114 	ld	hl,#(_sprite + 0x001a)
   0085 36 42               115 	ld	(hl),#0x42
   0087 21r1Br00            116 	ld	hl,#(_sprite + 0x001b)
   008A 36 7E               117 	ld	(hl),#0x7E
   008C 21r1Cr00            118 	ld	hl,#(_sprite + 0x001c)
   008F 36 99               119 	ld	(hl),#0x99
   0091 21r1Dr00            120 	ld	hl,#(_sprite + 0x001d)
   0094 36 FF               121 	ld	(hl),#0xFF
   0096 21r1Er00            122 	ld	hl,#(_sprite + 0x001e)
   0099 36 BD               123 	ld	(hl),#0xBD
   009B 21r1Fr00            124 	ld	hl,#(_sprite + 0x001f)
   009E 36 E7               125 	ld	(hl),#0xE7
   00A0 21r20r00            126 	ld	hl,#(_sprite + 0x0020)
   00A3 36 BD               127 	ld	(hl),#0xBD
   00A5 21r21r00            128 	ld	hl,#(_sprite + 0x0021)
   00A8 36 E7               129 	ld	(hl),#0xE7
   00AA 21r22r00            130 	ld	hl,#(_sprite + 0x0022)
   00AD 36 9A               131 	ld	(hl),#0x9A
   00AF 21r23r00            132 	ld	hl,#(_sprite + 0x0023)
   00B2 36 FE               133 	ld	(hl),#0xFE
   00B4 21r24r00            134 	ld	hl,#(_sprite + 0x0024)
   00B7 36 42               135 	ld	(hl),#0x42
   00B9 21r25r00            136 	ld	hl,#(_sprite + 0x0025)
   00BC 36 7E               137 	ld	(hl),#0x7E
   00BE 21r26r00            138 	ld	hl,#(_sprite + 0x0026)
   00C1 36 44               139 	ld	(hl),#0x44
   00C3 21r27r00            140 	ld	hl,#(_sprite + 0x0027)
   00C6 36 7C               141 	ld	(hl),#0x7C
   00C8 21r28r00            142 	ld	hl,#(_sprite + 0x0028)
   00CB 36 24               143 	ld	(hl),#0x24
   00CD 21r29r00            144 	ld	hl,#(_sprite + 0x0029)
   00D0 36 3C               145 	ld	(hl),#0x3C
   00D2 21r2Ar00            146 	ld	hl,#(_sprite + 0x002a)
   00D5 36 66               147 	ld	(hl),#0x66
   00D7 21r2Br00            148 	ld	hl,#(_sprite + 0x002b)
   00DA 36 7E               149 	ld	(hl),#0x7E
   00DC 21r2Cr00            150 	ld	hl,#(_sprite + 0x002c)
   00DF 36 99               151 	ld	(hl),#0x99
   00E1 21r2Dr00            152 	ld	hl,#(_sprite + 0x002d)
   00E4 36 99               153 	ld	(hl),#0x99
   00E6 21r2Er00            154 	ld	hl,#(_sprite + 0x002e)
   00E9 36 18               155 	ld	(hl),#0x18
   00EB 21r2Fr00            156 	ld	hl,#(_sprite + 0x002f)
   00EE 36 18               157 	ld	(hl),#0x18
   00F0 21r30r00            158 	ld	hl,#(_sprite + 0x0030)
   00F3 36 99               159 	ld	(hl),#0x99
   00F5 21r31r00            160 	ld	hl,#(_sprite + 0x0031)
   00F8 36 99               161 	ld	(hl),#0x99
   00FA 21r32r00            162 	ld	hl,#(_sprite + 0x0032)
   00FD 36 5A               163 	ld	(hl),#0x5A
   00FF 21r33r00            164 	ld	hl,#(_sprite + 0x0033)
   0102 36 5A               165 	ld	(hl),#0x5A
   0104 21r34r00            166 	ld	hl,#(_sprite + 0x0034)
   0107 36 24               167 	ld	(hl),#0x24
   0109 21r35r00            168 	ld	hl,#(_sprite + 0x0035)
   010C 36 3C               169 	ld	(hl),#0x3C
   010E 21r36r00            170 	ld	hl,#(_sprite + 0x0036)
   0111 36 24               171 	ld	(hl),#0x24
   0113 21r37r00            172 	ld	hl,#(_sprite + 0x0037)
   0116 36 3C               173 	ld	(hl),#0x3C
   0118 21r38r00            174 	ld	hl,#(_sprite + 0x0038)
   011B 36 42               175 	ld	(hl),#0x42
   011D 21r39r00            176 	ld	hl,#(_sprite + 0x0039)
   0120 36 7E               177 	ld	(hl),#0x7E
   0122 21r3Ar00            178 	ld	hl,#(_sprite + 0x003a)
   0125 36 42               179 	ld	(hl),#0x42
   0127 21r3Br00            180 	ld	hl,#(_sprite + 0x003b)
   012A 36 7E               181 	ld	(hl),#0x7E
   012C 21r3Cr00            182 	ld	hl,#(_sprite + 0x003c)
   012F 36 99               183 	ld	(hl),#0x99
   0131 21r3Dr00            184 	ld	hl,#(_sprite + 0x003d)
   0134 36 FF               185 	ld	(hl),#0xFF
   0136 21r3Er00            186 	ld	hl,#(_sprite + 0x003e)
   0139 36 BD               187 	ld	(hl),#0xBD
   013B 21r3Fr00            188 	ld	hl,#(_sprite + 0x003f)
   013E 36 E7               189 	ld	(hl),#0xE7
   0140 21r40r00            190 	ld	hl,#(_sprite + 0x0040)
   0143 36 BD               191 	ld	(hl),#0xBD
   0145 21r41r00            192 	ld	hl,#(_sprite + 0x0041)
   0148 36 E7               193 	ld	(hl),#0xE7
   014A 21r42r00            194 	ld	hl,#(_sprite + 0x0042)
   014D 36 9A               195 	ld	(hl),#0x9A
   014F 21r43r00            196 	ld	hl,#(_sprite + 0x0043)
   0152 36 FE               197 	ld	(hl),#0xFE
   0154 21r44r00            198 	ld	hl,#(_sprite + 0x0044)
   0157 36 42               199 	ld	(hl),#0x42
   0159 21r45r00            200 	ld	hl,#(_sprite + 0x0045)
   015C 36 7E               201 	ld	(hl),#0x7E
   015E 21r46r00            202 	ld	hl,#(_sprite + 0x0046)
   0161 36 44               203 	ld	(hl),#0x44
   0163 21r47r00            204 	ld	hl,#(_sprite + 0x0047)
   0166 36 7C               205 	ld	(hl),#0x7C
   0168 21r48r00            206 	ld	hl,#(_sprite + 0x0048)
   016B 36 24               207 	ld	(hl),#0x24
   016D 21r49r00            208 	ld	hl,#(_sprite + 0x0049)
   0170 36 3C               209 	ld	(hl),#0x3C
   0172 21r4Ar00            210 	ld	hl,#(_sprite + 0x004a)
   0175 36 66               211 	ld	(hl),#0x66
   0177 21r4Br00            212 	ld	hl,#(_sprite + 0x004b)
   017A 36 7E               213 	ld	(hl),#0x7E
   017C 21r4Cr00            214 	ld	hl,#(_sprite + 0x004c)
   017F 36 5A               215 	ld	(hl),#0x5A
   0181 21r4Dr00            216 	ld	hl,#(_sprite + 0x004d)
   0184 36 5A               217 	ld	(hl),#0x5A
   0186 21r4Er00            218 	ld	hl,#(_sprite + 0x004e)
   0189 36 5A               219 	ld	(hl),#0x5A
   018B 21r4Fr00            220 	ld	hl,#(_sprite + 0x004f)
   018E 36 5A               221 	ld	(hl),#0x5A
                            222 ;main.c:5: UINT8 timer = 0;
   0190 21r50r00            223 	ld	hl,#_timer
   0193 36 00               224 	ld	(hl),#0x00
                            225 ;--------------------------------------------------------
                            226 ; Home
                            227 ;--------------------------------------------------------
                            228 	.area _HOME
                            229 	.area _HOME
                            230 ;--------------------------------------------------------
                            231 ; code
                            232 ;--------------------------------------------------------
                            233 	.area _CODE
                            234 ;main.c:9: void performantDelay(UINT8 numloops){
                            235 ;	---------------------------------
                            236 ; Function performantDelay
                            237 ; ---------------------------------
   0000                     238 _performantDelay::
                            239 ;main.c:12: for(i=0;i<numloops;i++){
   0000 06 00               240 	ld	b,#0x00
   0002                     241 00103$:
   0002 78                  242 	ld	a,b
   0003 F8 02               243 	ldhl	sp,#2
   0005 96                  244 	sub	a, (hl)
   0006 D0                  245 	ret	NC
                            246 ;main.c:13: wait_vbl_done();
   0007 C5                  247 	push	bc
   0008 CDr00r00            248 	call	_wait_vbl_done
   000B C1                  249 	pop	bc
                            250 ;main.c:12: for(i=0;i<numloops;i++){
   000C 04                  251 	inc	b
   000D 18 F3               252 	jr	00103$
   000F C9                  253 	ret
                            254 ;main.c:17: void moveGameCharAnim(){
                            255 ;	---------------------------------
                            256 ; Function moveGameCharAnim
                            257 ; ---------------------------------
   0010                     258 _moveGameCharAnim::
                            259 ;main.c:19: if(timer == 5){
   0010 21r50r00            260 	ld	hl,#_timer
   0013 7E                  261 	ld	a,(hl)
   0014 D6 05               262 	sub	a, #0x05
   0016 20 14               263 	jr	NZ,00104$
                            264 ;main.c:20: set_sprite_tile(1, 3);
   0018 21 01 03            265 	ld	hl,#0x0301
   001B E5                  266 	push	hl
   001C CDr00r00            267 	call	_set_sprite_tile
   001F E8 02               268 	add	sp, #2
                            269 ;main.c:21: set_sprite_tile(2, 4);
   0021 21 02 04            270 	ld	hl,#0x0402
   0024 E5                  271 	push	hl
   0025 CDr00r00            272 	call	_set_sprite_tile
   0028 E8 02               273 	add	sp, #2
   002A 18 1F               274 	jr	00105$
   002C                     275 00104$:
                            276 ;main.c:23: else if(timer == 10){
   002C 21r50r00            277 	ld	hl,#_timer
   002F 7E                  278 	ld	a,(hl)
   0030 D6 0A               279 	sub	a, #0x0A
   0032 20 17               280 	jr	NZ,00105$
                            281 ;main.c:24: set_sprite_tile(1, 1);
   0034 21 01 01            282 	ld	hl,#0x0101
   0037 E5                  283 	push	hl
   0038 CDr00r00            284 	call	_set_sprite_tile
   003B E8 02               285 	add	sp, #2
                            286 ;main.c:25: set_sprite_tile(2, 2);
   003D 21 02 02            287 	ld	hl,#0x0202
   0040 E5                  288 	push	hl
   0041 CDr00r00            289 	call	_set_sprite_tile
   0044 E8 02               290 	add	sp, #2
                            291 ;main.c:26: timer = 0;
   0046 21r50r00            292 	ld	hl,#_timer
   0049 36 00               293 	ld	(hl),#0x00
   004B                     294 00105$:
                            295 ;main.c:28: timer++;
   004B 21r50r00            296 	ld	hl,#_timer
   004E 34                  297 	inc	(hl)
   004F C9                  298 	ret
                            299 ;main.c:31: void moveGameCharacter(struct gameCharacter* character, UINT8 x, UINT8 y){
                            300 ;	---------------------------------
                            301 ; Function moveGameCharacter
                            302 ; ---------------------------------
   0050                     303 _moveGameCharacter::
   0050 E8 FD               304 	add	sp, #-3
                            305 ;main.c:32: move_sprite(character->spriteId[1],x,y);
   0052 F8 05               306 	ldhl	sp,#5
   0054 2A                  307 	ld	a,(hl+)
   0055 5E                  308 	ld	e, (hl)
   0056 F8 00               309 	ldhl	sp,#0
   0058 22                  310 	ld	(hl+),a
   0059 73                  311 	ld	(hl),e
   005A C1                  312 	pop	bc
   005B C5                  313 	push	bc
   005C 03                  314 	inc	bc
   005D 0A                  315 	ld	a,(bc)
   005E 57                  316 	ld	d,a
   005F F8 08               317 	ldhl	sp,#8
   0061 7E                  318 	ld	a,(hl)
   0062 F5                  319 	push	af
   0063 33                  320 	inc	sp
   0064 2B                  321 	dec	hl
   0065 7E                  322 	ld	a,(hl)
   0066 F5                  323 	push	af
   0067 33                  324 	inc	sp
   0068 D5                  325 	push	de
   0069 33                  326 	inc	sp
   006A CDr00r00            327 	call	_move_sprite
   006D E8 03               328 	add	sp, #3
                            329 ;main.c:33: move_sprite(character->spriteId[2],x,y + 8);
   006F F8 08               330 	ldhl	sp,#8
   0071 7E                  331 	ld	a,(hl)
   0072 C6 08               332 	add	a, #0x08
   0074 F8 02               333 	ldhl	sp,#2
   0076 77                  334 	ld	(hl),a
   0077 C1                  335 	pop	bc
   0078 C5                  336 	push	bc
   0079 03                  337 	inc	bc
   007A 03                  338 	inc	bc
   007B 0A                  339 	ld	a,(bc)
   007C 57                  340 	ld	d,a
   007D 7E                  341 	ld	a,(hl)
   007E F5                  342 	push	af
   007F 33                  343 	inc	sp
   0080 F8 08               344 	ldhl	sp,#8
   0082 7E                  345 	ld	a,(hl)
   0083 F5                  346 	push	af
   0084 33                  347 	inc	sp
   0085 D5                  348 	push	de
   0086 33                  349 	inc	sp
   0087 CDr00r00            350 	call	_move_sprite
   008A E8 03               351 	add	sp, #3
   008C E8 03               352 	add	sp, #3
   008E C9                  353 	ret
                            354 ;main.c:37: void setupSpider(){
                            355 ;	---------------------------------
                            356 ; Function setupSpider
                            357 ; ---------------------------------
   008F                     358 _setupSpider::
                            359 ;main.c:38: spider.x=80;
   008F 21r56r00            360 	ld	hl,#(_spider + 0x0005)
   0092 36 50               361 	ld	(hl),#0x50
                            362 ;main.c:39: spider.y=130;
   0094 21r57r00            363 	ld	hl,#(_spider + 0x0006)
   0097 36 82               364 	ld	(hl),#0x82
                            365 ;main.c:40: spider.width=8;
   0099 21r58r00            366 	ld	hl,#(_spider + 0x0007)
   009C 36 08               367 	ld	(hl),#0x08
                            368 ;main.c:41: spider.height=16;
   009E 21r59r00            369 	ld	hl,#(_spider + 0x0008)
   00A1 36 10               370 	ld	(hl),#0x10
                            371 ;main.c:43: set_sprite_tile(0,0);
   00A3 21 00 00            372 	ld	hl,#0x0000
   00A6 E5                  373 	push	hl
   00A7 CDr00r00            374 	call	_set_sprite_tile
   00AA E8 02               375 	add	sp, #2
                            376 ;main.c:44: spider.spriteId[0]=0;
   00AC 21r51r00            377 	ld	hl,#_spider
   00AF 36 00               378 	ld	(hl),#0x00
                            379 ;main.c:46: set_sprite_tile(1,1);
   00B1 21 01 01            380 	ld	hl,#0x0101
   00B4 E5                  381 	push	hl
   00B5 CDr00r00            382 	call	_set_sprite_tile
   00B8 E8 02               383 	add	sp, #2
                            384 ;main.c:47: spider.spriteId[1]=1;
   00BA 21r52r00            385 	ld	hl,#(_spider + 0x0001)
   00BD 36 01               386 	ld	(hl),#0x01
                            387 ;main.c:48: set_sprite_tile(2,2);
   00BF 21 02 02            388 	ld	hl,#0x0202
   00C2 E5                  389 	push	hl
   00C3 CDr00r00            390 	call	_set_sprite_tile
   00C6 E8 02               391 	add	sp, #2
                            392 ;main.c:49: spider.spriteId[2]=2;
   00C8 21r53r00            393 	ld	hl,#(_spider + 0x0002)
   00CB 36 02               394 	ld	(hl),#0x02
                            395 ;main.c:56: moveGameCharacter(&spider,spider.x,spider.y);
   00CD 11r57r00            396 	ld	de, #(_spider + 0x0006) + 0
   00D0 1A                  397 	ld	a,(de)
   00D1 4F                  398 	ld	c,a
   00D2 11r56r00            399 	ld	de, #(_spider + 0x0005) + 0
   00D5 1A                  400 	ld	a,(de)
   00D6 47                  401 	ld	b,a
   00D7 11r51r00            402 	ld	de,#_spider
   00DA 79                  403 	ld	a,c
   00DB F5                  404 	push	af
   00DC 33                  405 	inc	sp
   00DD C5                  406 	push	bc
   00DE 33                  407 	inc	sp
   00DF D5                  408 	push	de
   00E0 CDr50r00            409 	call	_moveGameCharacter
   00E3 E8 04               410 	add	sp, #4
   00E5 C9                  411 	ret
                            412 ;main.c:59: void main(){
                            413 ;	---------------------------------
                            414 ; Function main
                            415 ; ---------------------------------
   00E6                     416 _main::
                            417 ;main.c:60: set_sprite_data(0,5,sprite);
   00E6 11r00r00            418 	ld	de,#_sprite
   00E9 D5                  419 	push	de
   00EA 21 00 05            420 	ld	hl,#0x0500
   00ED E5                  421 	push	hl
   00EE CDr00r00            422 	call	_set_sprite_data
   00F1 E8 04               423 	add	sp, #4
                            424 ;main.c:61: setupSpider();
   00F3 CDr8Fr00            425 	call	_setupSpider
                            426 ;main.c:64: SHOW_SPRITES;
   00F6 11 40 FF            427 	ld	de,#0xFF40
   00F9 1A                  428 	ld	a,(de)
   00FA 5F                  429 	ld	e,a
   00FB 16 00               430 	ld	d,#0x00
   00FD 7B                  431 	ld	a,e
   00FE CB CF               432 	set	1, a
   0100 47                  433 	ld	b,a
   0101 21 40 FF            434 	ld	hl,#0xFF40
   0104 70                  435 	ld	(hl),b
                            436 ;main.c:65: DISPLAY_ON;
   0105 11 40 FF            437 	ld	de,#0xFF40
   0108 1A                  438 	ld	a,(de)
   0109 5F                  439 	ld	e,a
   010A 16 00               440 	ld	d,#0x00
   010C 7B                  441 	ld	a,e
   010D CB FF               442 	set	7, a
   010F 47                  443 	ld	b,a
   0110 2E 40               444 	ld	l, #0x40
   0112 70                  445 	ld	(hl),b
                            446 ;main.c:68: while(1){
   0113                     447 00106$:
                            448 ;main.c:69: moveGameCharAnim();
   0113 CDr10r00            449 	call	_moveGameCharAnim
                            450 ;main.c:72: if(joypad() & J_LEFT){
   0116 CDr00r00            451 	call	_joypad
   0119 16 00               452 	ld	d,#0x00
   011B CB 4B               453 	bit	1, e
   011D 28 20               454 	jr	Z,00102$
                            455 ;main.c:73: spider.x -= 2;
   011F FAr56r00            456 	ld	a, (#(_spider + 0x0005) + 0)
   0122 47                  457 	ld	b,a
   0123 05                  458 	dec	b
   0124 05                  459 	dec	b
   0125 21r56r00            460 	ld	hl,#(_spider + 0x0005)
   0128 70                  461 	ld	(hl),b
                            462 ;main.c:74: moveGameCharacter(&spider,spider.x,spider.y);
   0129 11r57r00            463 	ld	de, #(_spider + 0x0006) + 0
   012C 1A                  464 	ld	a,(de)
   012D 4F                  465 	ld	c,a
   012E 11r51r00            466 	ld	de,#_spider
   0131 79                  467 	ld	a,c
   0132 F5                  468 	push	af
   0133 33                  469 	inc	sp
   0134 C5                  470 	push	bc
   0135 33                  471 	inc	sp
   0136 D5                  472 	push	de
   0137 CDr50r00            473 	call	_moveGameCharacter
   013A E8 04               474 	add	sp, #4
                            475 ;main.c:75: moveGameCharAnim();
   013C CDr10r00            476 	call	_moveGameCharAnim
   013F                     477 00102$:
                            478 ;main.c:79: if(joypad() & J_RIGHT){
   013F CDr00r00            479 	call	_joypad
   0142 16 00               480 	ld	d,#0x00
   0144 CB 43               481 	bit	0, e
   0146 28 20               482 	jr	Z,00104$
                            483 ;main.c:80: spider.x += 2;
   0148 FAr56r00            484 	ld	a, (#(_spider + 0x0005) + 0)
   014B 47                  485 	ld	b,a
   014C 04                  486 	inc	b
   014D 04                  487 	inc	b
   014E 21r56r00            488 	ld	hl,#(_spider + 0x0005)
   0151 70                  489 	ld	(hl),b
                            490 ;main.c:81: moveGameCharacter(&spider,spider.x,spider.y);
   0152 11r57r00            491 	ld	de, #(_spider + 0x0006) + 0
   0155 1A                  492 	ld	a,(de)
   0156 4F                  493 	ld	c,a
   0157 11r51r00            494 	ld	de,#_spider
   015A 79                  495 	ld	a,c
   015B F5                  496 	push	af
   015C 33                  497 	inc	sp
   015D C5                  498 	push	bc
   015E 33                  499 	inc	sp
   015F D5                  500 	push	de
   0160 CDr50r00            501 	call	_moveGameCharacter
   0163 E8 04               502 	add	sp, #4
                            503 ;main.c:82: moveGameCharAnim();
   0165 CDr10r00            504 	call	_moveGameCharAnim
   0168                     505 00104$:
                            506 ;main.c:85: performantDelay(1);
   0168 3E 01               507 	ld	a,#0x01
   016A F5                  508 	push	af
   016B 33                  509 	inc	sp
   016C CDr00r00            510 	call	_performantDelay
   016F 33                  511 	inc	sp
   0170 C3r13r01            512 	jp	00106$
   0173 C9                  513 	ret
                            514 	.area _CODE
                            515 	.area _CABS (ABS)
