                              1 ;--------------------------------------------------------
                              2 ; File Created by SDCC : free open source ANSI-C Compiler
                              3 ; Version 3.5.0 #9253 (Mar 19 2016) (Linux)
                              4 ; This file was generated Sun Dec  1 21:29:10 2019
                              5 ;--------------------------------------------------------
                              6 	.module main
                              7 	.optsdcc -mgbz80
                              8 	
                              9 ;--------------------------------------------------------
                             10 ; Public variables in this module
                             11 ;--------------------------------------------------------
                             12 	.globl _main
                             13 	.globl _fontINIT
                             14 	.globl _performantDelay
                             15 	.globl _counterDigit
                             16 	.globl _font_set
                             17 	.globl _font_load
                             18 	.globl _font_init
                             19 	.globl _move_win
                             20 	.globl _set_win_tiles
                             21 	.globl _scroll_bkg
                             22 	.globl _set_bkg_tiles
                             23 	.globl _set_bkg_data
                             24 	.globl _wait_vbl_done
                             25 	.globl _window01Map
                             26 	.globl _numberCount
                             27 	.globl _counterDigit2
                             28 	.globl _counterDigit1
                             29 	.globl _indexForLoop
                             30 	.globl _level01Map
                             31 	.globl _level01Tiles
                             32 ;--------------------------------------------------------
                             33 ; ram data
                             34 ;--------------------------------------------------------
                             35 	.area _DATA
   0000                      36 _level01Tiles::
   0000                      37 	.ds 208
   00D0                      38 _level01Map::
   00D0                      39 	.ds 720
   03A0                      40 _indexForLoop::
   03A0                      41 	.ds 1
   03A1                      42 _counterDigit1::
   03A1                      43 	.ds 1
   03A2                      44 _counterDigit2::
   03A2                      45 	.ds 1
   03A3                      46 _numberCount::
   03A3                      47 	.ds 10
   03AD                      48 _window01Map::
   03AD                      49 	.ds 7
                             50 ;--------------------------------------------------------
                             51 ; absolute external ram data
                             52 ;--------------------------------------------------------
                             53 	.area _DABS (ABS)
                             54 ;--------------------------------------------------------
                             55 ; global & static initialisations
                             56 ;--------------------------------------------------------
                             57 	.area _HOME
                             58 	.area _GSINIT
                             59 	.area _GSFINAL
                             60 	.area _GSINIT
                             61 ;level01Tiles.c:26: unsigned char level01Tiles[] =
   0000 21r00r00             62 	ld	hl,#_level01Tiles
   0003 36 00                63 	ld	(hl),#0x00
   0005 01r01r00             64 	ld	bc,#_level01Tiles + 1
   0008 AF                   65 	xor	a, a
   0009 02                   66 	ld	(bc),a
   000A 01r02r00             67 	ld	bc,#_level01Tiles + 2
   000D AF                   68 	xor	a, a
   000E 02                   69 	ld	(bc),a
   000F 01r03r00             70 	ld	bc,#_level01Tiles + 3
   0012 AF                   71 	xor	a, a
   0013 02                   72 	ld	(bc),a
   0014 01r04r00             73 	ld	bc,#_level01Tiles + 4
   0017 AF                   74 	xor	a, a
   0018 02                   75 	ld	(bc),a
   0019 01r05r00             76 	ld	bc,#_level01Tiles + 5
   001C AF                   77 	xor	a, a
   001D 02                   78 	ld	(bc),a
   001E 01r06r00             79 	ld	bc,#_level01Tiles + 6
   0021 AF                   80 	xor	a, a
   0022 02                   81 	ld	(bc),a
   0023 01r07r00             82 	ld	bc,#_level01Tiles + 7
   0026 AF                   83 	xor	a, a
   0027 02                   84 	ld	(bc),a
   0028 01r08r00             85 	ld	bc,#_level01Tiles + 8
   002B AF                   86 	xor	a, a
   002C 02                   87 	ld	(bc),a
   002D 01r09r00             88 	ld	bc,#_level01Tiles + 9
   0030 AF                   89 	xor	a, a
   0031 02                   90 	ld	(bc),a
   0032 01r0Ar00             91 	ld	bc,#_level01Tiles + 10
   0035 AF                   92 	xor	a, a
   0036 02                   93 	ld	(bc),a
   0037 01r0Br00             94 	ld	bc,#_level01Tiles + 11
   003A AF                   95 	xor	a, a
   003B 02                   96 	ld	(bc),a
   003C 01r0Cr00             97 	ld	bc,#_level01Tiles + 12
   003F AF                   98 	xor	a, a
   0040 02                   99 	ld	(bc),a
   0041 01r0Dr00            100 	ld	bc,#_level01Tiles + 13
   0044 AF                  101 	xor	a, a
   0045 02                  102 	ld	(bc),a
   0046 01r0Er00            103 	ld	bc,#_level01Tiles + 14
   0049 AF                  104 	xor	a, a
   004A 02                  105 	ld	(bc),a
   004B 01r0Fr00            106 	ld	bc,#_level01Tiles + 15
   004E AF                  107 	xor	a, a
   004F 02                  108 	ld	(bc),a
   0050 01r10r00            109 	ld	bc,#_level01Tiles + 16
   0053 AF                  110 	xor	a, a
   0054 02                  111 	ld	(bc),a
   0055 21r11r00            112 	ld	hl,#(_level01Tiles + 0x0011)
   0058 36 FF               113 	ld	(hl),#0xFF
   005A 21r12r00            114 	ld	hl,#(_level01Tiles + 0x0012)
   005D 36 FF               115 	ld	(hl),#0xFF
   005F 01r13r00            116 	ld	bc,#_level01Tiles + 19
   0062 AF                  117 	xor	a, a
   0063 02                  118 	ld	(bc),a
   0064 21r14r00            119 	ld	hl,#(_level01Tiles + 0x0014)
   0067 36 FF               120 	ld	(hl),#0xFF
   0069 01r15r00            121 	ld	bc,#_level01Tiles + 21
   006C AF                  122 	xor	a, a
   006D 02                  123 	ld	(bc),a
   006E 21r16r00            124 	ld	hl,#(_level01Tiles + 0x0016)
   0071 36 FF               125 	ld	(hl),#0xFF
   0073 01r17r00            126 	ld	bc,#_level01Tiles + 23
   0076 AF                  127 	xor	a, a
   0077 02                  128 	ld	(bc),a
   0078 21r18r00            129 	ld	hl,#(_level01Tiles + 0x0018)
   007B 36 FF               130 	ld	(hl),#0xFF
   007D 01r19r00            131 	ld	bc,#_level01Tiles + 25
   0080 AF                  132 	xor	a, a
   0081 02                  133 	ld	(bc),a
   0082 21r1Ar00            134 	ld	hl,#(_level01Tiles + 0x001a)
   0085 36 FF               135 	ld	(hl),#0xFF
   0087 01r1Br00            136 	ld	bc,#_level01Tiles + 27
   008A AF                  137 	xor	a, a
   008B 02                  138 	ld	(bc),a
   008C 21r1Cr00            139 	ld	hl,#(_level01Tiles + 0x001c)
   008F 36 FF               140 	ld	(hl),#0xFF
   0091 01r1Dr00            141 	ld	bc,#_level01Tiles + 29
   0094 AF                  142 	xor	a, a
   0095 02                  143 	ld	(bc),a
   0096 21r1Er00            144 	ld	hl,#(_level01Tiles + 0x001e)
   0099 36 FF               145 	ld	(hl),#0xFF
   009B 01r1Fr00            146 	ld	bc,#_level01Tiles + 31
   009E AF                  147 	xor	a, a
   009F 02                  148 	ld	(bc),a
   00A0 01r20r00            149 	ld	bc,#_level01Tiles + 32
   00A3 AF                  150 	xor	a, a
   00A4 02                  151 	ld	(bc),a
   00A5 21r21r00            152 	ld	hl,#(_level01Tiles + 0x0021)
   00A8 36 0F               153 	ld	(hl),#0x0F
   00AA 21r22r00            154 	ld	hl,#(_level01Tiles + 0x0022)
   00AD 36 0F               155 	ld	(hl),#0x0F
   00AF 21r23r00            156 	ld	hl,#(_level01Tiles + 0x0023)
   00B2 36 30               157 	ld	(hl),#0x30
   00B4 21r24r00            158 	ld	hl,#(_level01Tiles + 0x0024)
   00B7 36 3F               159 	ld	(hl),#0x3F
   00B9 21r25r00            160 	ld	hl,#(_level01Tiles + 0x0025)
   00BC 36 40               161 	ld	(hl),#0x40
   00BE 21r26r00            162 	ld	hl,#(_level01Tiles + 0x0026)
   00C1 36 3F               163 	ld	(hl),#0x3F
   00C3 21r27r00            164 	ld	hl,#(_level01Tiles + 0x0027)
   00C6 36 40               165 	ld	(hl),#0x40
   00C8 21r28r00            166 	ld	hl,#(_level01Tiles + 0x0028)
   00CB 36 7F               167 	ld	(hl),#0x7F
   00CD 21r29r00            168 	ld	hl,#(_level01Tiles + 0x0029)
   00D0 36 80               169 	ld	(hl),#0x80
   00D2 21r2Ar00            170 	ld	hl,#(_level01Tiles + 0x002a)
   00D5 36 7F               171 	ld	(hl),#0x7F
   00D7 21r2Br00            172 	ld	hl,#(_level01Tiles + 0x002b)
   00DA 36 80               173 	ld	(hl),#0x80
   00DC 21r2Cr00            174 	ld	hl,#(_level01Tiles + 0x002c)
   00DF 36 7F               175 	ld	(hl),#0x7F
   00E1 21r2Dr00            176 	ld	hl,#(_level01Tiles + 0x002d)
   00E4 36 80               177 	ld	(hl),#0x80
   00E6 21r2Er00            178 	ld	hl,#(_level01Tiles + 0x002e)
   00E9 36 7F               179 	ld	(hl),#0x7F
   00EB 21r2Fr00            180 	ld	hl,#(_level01Tiles + 0x002f)
   00EE 36 80               181 	ld	(hl),#0x80
   00F0 01r30r00            182 	ld	bc,#_level01Tiles + 48
   00F3 AF                  183 	xor	a, a
   00F4 02                  184 	ld	(bc),a
   00F5 21r31r00            185 	ld	hl,#(_level01Tiles + 0x0031)
   00F8 36 F0               186 	ld	(hl),#0xF0
   00FA 21r32r00            187 	ld	hl,#(_level01Tiles + 0x0032)
   00FD 36 F0               188 	ld	(hl),#0xF0
   00FF 21r33r00            189 	ld	hl,#(_level01Tiles + 0x0033)
   0102 36 0C               190 	ld	(hl),#0x0C
   0104 21r34r00            191 	ld	hl,#(_level01Tiles + 0x0034)
   0107 36 FC               192 	ld	(hl),#0xFC
   0109 21r35r00            193 	ld	hl,#(_level01Tiles + 0x0035)
   010C 36 02               194 	ld	(hl),#0x02
   010E 21r36r00            195 	ld	hl,#(_level01Tiles + 0x0036)
   0111 36 FC               196 	ld	(hl),#0xFC
   0113 21r37r00            197 	ld	hl,#(_level01Tiles + 0x0037)
   0116 36 02               198 	ld	(hl),#0x02
   0118 21r38r00            199 	ld	hl,#(_level01Tiles + 0x0038)
   011B 36 FE               200 	ld	(hl),#0xFE
   011D 21r39r00            201 	ld	hl,#(_level01Tiles + 0x0039)
   0120 36 01               202 	ld	(hl),#0x01
   0122 21r3Ar00            203 	ld	hl,#(_level01Tiles + 0x003a)
   0125 36 FE               204 	ld	(hl),#0xFE
   0127 21r3Br00            205 	ld	hl,#(_level01Tiles + 0x003b)
   012A 36 01               206 	ld	(hl),#0x01
   012C 21r3Cr00            207 	ld	hl,#(_level01Tiles + 0x003c)
   012F 36 FE               208 	ld	(hl),#0xFE
   0131 21r3Dr00            209 	ld	hl,#(_level01Tiles + 0x003d)
   0134 36 01               210 	ld	(hl),#0x01
   0136 21r3Er00            211 	ld	hl,#(_level01Tiles + 0x003e)
   0139 36 FE               212 	ld	(hl),#0xFE
   013B 21r3Fr00            213 	ld	hl,#(_level01Tiles + 0x003f)
   013E 36 01               214 	ld	(hl),#0x01
   0140 21r40r00            215 	ld	hl,#(_level01Tiles + 0x0040)
   0143 36 7F               216 	ld	(hl),#0x7F
   0145 21r41r00            217 	ld	hl,#(_level01Tiles + 0x0041)
   0148 36 80               218 	ld	(hl),#0x80
   014A 21r42r00            219 	ld	hl,#(_level01Tiles + 0x0042)
   014D 36 7F               220 	ld	(hl),#0x7F
   014F 21r43r00            221 	ld	hl,#(_level01Tiles + 0x0043)
   0152 36 80               222 	ld	(hl),#0x80
   0154 21r44r00            223 	ld	hl,#(_level01Tiles + 0x0044)
   0157 36 7F               224 	ld	(hl),#0x7F
   0159 21r45r00            225 	ld	hl,#(_level01Tiles + 0x0045)
   015C 36 80               226 	ld	(hl),#0x80
   015E 21r46r00            227 	ld	hl,#(_level01Tiles + 0x0046)
   0161 36 7F               228 	ld	(hl),#0x7F
   0163 21r47r00            229 	ld	hl,#(_level01Tiles + 0x0047)
   0166 36 80               230 	ld	(hl),#0x80
   0168 21r48r00            231 	ld	hl,#(_level01Tiles + 0x0048)
   016B 36 7F               232 	ld	(hl),#0x7F
   016D 21r49r00            233 	ld	hl,#(_level01Tiles + 0x0049)
   0170 36 80               234 	ld	(hl),#0x80
   0172 21r4Ar00            235 	ld	hl,#(_level01Tiles + 0x004a)
   0175 36 7F               236 	ld	(hl),#0x7F
   0177 21r4Br00            237 	ld	hl,#(_level01Tiles + 0x004b)
   017A 36 80               238 	ld	(hl),#0x80
   017C 21r4Cr00            239 	ld	hl,#(_level01Tiles + 0x004c)
   017F 36 7F               240 	ld	(hl),#0x7F
   0181 21r4Dr00            241 	ld	hl,#(_level01Tiles + 0x004d)
   0184 36 80               242 	ld	(hl),#0x80
   0186 21r4Er00            243 	ld	hl,#(_level01Tiles + 0x004e)
   0189 36 7F               244 	ld	(hl),#0x7F
   018B 21r4Fr00            245 	ld	hl,#(_level01Tiles + 0x004f)
   018E 36 80               246 	ld	(hl),#0x80
   0190 21r50r00            247 	ld	hl,#(_level01Tiles + 0x0050)
   0193 36 7F               248 	ld	(hl),#0x7F
   0195 21r51r00            249 	ld	hl,#(_level01Tiles + 0x0051)
   0198 36 80               250 	ld	(hl),#0x80
   019A 21r52r00            251 	ld	hl,#(_level01Tiles + 0x0052)
   019D 36 7F               252 	ld	(hl),#0x7F
   019F 21r53r00            253 	ld	hl,#(_level01Tiles + 0x0053)
   01A2 36 80               254 	ld	(hl),#0x80
   01A4 21r54r00            255 	ld	hl,#(_level01Tiles + 0x0054)
   01A7 36 7F               256 	ld	(hl),#0x7F
   01A9 21r55r00            257 	ld	hl,#(_level01Tiles + 0x0055)
   01AC 36 80               258 	ld	(hl),#0x80
   01AE 21r56r00            259 	ld	hl,#(_level01Tiles + 0x0056)
   01B1 36 7F               260 	ld	(hl),#0x7F
   01B3 21r57r00            261 	ld	hl,#(_level01Tiles + 0x0057)
   01B6 36 80               262 	ld	(hl),#0x80
   01B8 21r58r00            263 	ld	hl,#(_level01Tiles + 0x0058)
   01BB 36 7F               264 	ld	(hl),#0x7F
   01BD 21r59r00            265 	ld	hl,#(_level01Tiles + 0x0059)
   01C0 36 80               266 	ld	(hl),#0x80
   01C2 21r5Ar00            267 	ld	hl,#(_level01Tiles + 0x005a)
   01C5 36 FF               268 	ld	(hl),#0xFF
   01C7 01r5Br00            269 	ld	bc,#_level01Tiles + 91
   01CA AF                  270 	xor	a, a
   01CB 02                  271 	ld	(bc),a
   01CC 21r5Cr00            272 	ld	hl,#(_level01Tiles + 0x005c)
   01CF 36 FF               273 	ld	(hl),#0xFF
   01D1 01r5Dr00            274 	ld	bc,#_level01Tiles + 93
   01D4 AF                  275 	xor	a, a
   01D5 02                  276 	ld	(bc),a
   01D6 21r5Er00            277 	ld	hl,#(_level01Tiles + 0x005e)
   01D9 36 FF               278 	ld	(hl),#0xFF
   01DB 01r5Fr00            279 	ld	bc,#_level01Tiles + 95
   01DE AF                  280 	xor	a, a
   01DF 02                  281 	ld	(bc),a
   01E0 01r60r00            282 	ld	bc,#_level01Tiles + 96
   01E3 AF                  283 	xor	a, a
   01E4 02                  284 	ld	(bc),a
   01E5 01r61r00            285 	ld	bc,#_level01Tiles + 97
   01E8 AF                  286 	xor	a, a
   01E9 02                  287 	ld	(bc),a
   01EA 01r62r00            288 	ld	bc,#_level01Tiles + 98
   01ED AF                  289 	xor	a, a
   01EE 02                  290 	ld	(bc),a
   01EF 01r63r00            291 	ld	bc,#_level01Tiles + 99
   01F2 AF                  292 	xor	a, a
   01F3 02                  293 	ld	(bc),a
   01F4 01r64r00            294 	ld	bc,#_level01Tiles + 100
   01F7 AF                  295 	xor	a, a
   01F8 02                  296 	ld	(bc),a
   01F9 01r65r00            297 	ld	bc,#_level01Tiles + 101
   01FC AF                  298 	xor	a, a
   01FD 02                  299 	ld	(bc),a
   01FE 01r66r00            300 	ld	bc,#_level01Tiles + 102
   0201 AF                  301 	xor	a, a
   0202 02                  302 	ld	(bc),a
   0203 01r67r00            303 	ld	bc,#_level01Tiles + 103
   0206 AF                  304 	xor	a, a
   0207 02                  305 	ld	(bc),a
   0208 01r68r00            306 	ld	bc,#_level01Tiles + 104
   020B AF                  307 	xor	a, a
   020C 02                  308 	ld	(bc),a
   020D 01r69r00            309 	ld	bc,#_level01Tiles + 105
   0210 AF                  310 	xor	a, a
   0211 02                  311 	ld	(bc),a
   0212 01r6Ar00            312 	ld	bc,#_level01Tiles + 106
   0215 AF                  313 	xor	a, a
   0216 02                  314 	ld	(bc),a
   0217 21r6Br00            315 	ld	hl,#(_level01Tiles + 0x006b)
   021A 36 01               316 	ld	(hl),#0x01
   021C 01r6Cr00            317 	ld	bc,#_level01Tiles + 108
   021F AF                  318 	xor	a, a
   0220 02                  319 	ld	(bc),a
   0221 21r6Dr00            320 	ld	hl,#(_level01Tiles + 0x006d)
   0224 36 01               321 	ld	(hl),#0x01
   0226 21r6Er00            322 	ld	hl,#(_level01Tiles + 0x006e)
   0229 36 01               323 	ld	(hl),#0x01
   022B 21r6Fr00            324 	ld	hl,#(_level01Tiles + 0x006f)
   022E 36 06               325 	ld	(hl),#0x06
   0230 21r70r00            326 	ld	hl,#(_level01Tiles + 0x0070)
   0233 36 07               327 	ld	(hl),#0x07
   0235 21r71r00            328 	ld	hl,#(_level01Tiles + 0x0071)
   0238 36 F8               329 	ld	(hl),#0xF8
   023A 21r72r00            330 	ld	hl,#(_level01Tiles + 0x0072)
   023D 36 FF               331 	ld	(hl),#0xFF
   023F 01r73r00            332 	ld	bc,#_level01Tiles + 115
   0242 AF                  333 	xor	a, a
   0243 02                  334 	ld	(bc),a
   0244 21r74r00            335 	ld	hl,#(_level01Tiles + 0x0074)
   0247 36 FF               336 	ld	(hl),#0xFF
   0249 01r75r00            337 	ld	bc,#_level01Tiles + 117
   024C AF                  338 	xor	a, a
   024D 02                  339 	ld	(bc),a
   024E 21r76r00            340 	ld	hl,#(_level01Tiles + 0x0076)
   0251 36 FF               341 	ld	(hl),#0xFF
   0253 01r77r00            342 	ld	bc,#_level01Tiles + 119
   0256 AF                  343 	xor	a, a
   0257 02                  344 	ld	(bc),a
   0258 21r78r00            345 	ld	hl,#(_level01Tiles + 0x0078)
   025B 36 FF               346 	ld	(hl),#0xFF
   025D 01r79r00            347 	ld	bc,#_level01Tiles + 121
   0260 AF                  348 	xor	a, a
   0261 02                  349 	ld	(bc),a
   0262 21r7Ar00            350 	ld	hl,#(_level01Tiles + 0x007a)
   0265 36 FF               351 	ld	(hl),#0xFF
   0267 01r7Br00            352 	ld	bc,#_level01Tiles + 123
   026A AF                  353 	xor	a, a
   026B 02                  354 	ld	(bc),a
   026C 21r7Cr00            355 	ld	hl,#(_level01Tiles + 0x007c)
   026F 36 FF               356 	ld	(hl),#0xFF
   0271 01r7Dr00            357 	ld	bc,#_level01Tiles + 125
   0274 AF                  358 	xor	a, a
   0275 02                  359 	ld	(bc),a
   0276 21r7Er00            360 	ld	hl,#(_level01Tiles + 0x007e)
   0279 36 FF               361 	ld	(hl),#0xFF
   027B 01r7Fr00            362 	ld	bc,#_level01Tiles + 127
   027E AF                  363 	xor	a, a
   027F 02                  364 	ld	(bc),a
   0280 21r80r00            365 	ld	hl,#(_level01Tiles + 0x0080)
   0283 36 FE               366 	ld	(hl),#0xFE
   0285 21r81r00            367 	ld	hl,#(_level01Tiles + 0x0081)
   0288 36 01               368 	ld	(hl),#0x01
   028A 21r82r00            369 	ld	hl,#(_level01Tiles + 0x0082)
   028D 36 FE               370 	ld	(hl),#0xFE
   028F 21r83r00            371 	ld	hl,#(_level01Tiles + 0x0083)
   0292 36 01               372 	ld	(hl),#0x01
   0294 21r84r00            373 	ld	hl,#(_level01Tiles + 0x0084)
   0297 36 FE               374 	ld	(hl),#0xFE
   0299 21r85r00            375 	ld	hl,#(_level01Tiles + 0x0085)
   029C 36 01               376 	ld	(hl),#0x01
   029E 21r86r00            377 	ld	hl,#(_level01Tiles + 0x0086)
   02A1 36 FE               378 	ld	(hl),#0xFE
   02A3 21r87r00            379 	ld	hl,#(_level01Tiles + 0x0087)
   02A6 36 01               380 	ld	(hl),#0x01
   02A8 21r88r00            381 	ld	hl,#(_level01Tiles + 0x0088)
   02AB 36 FE               382 	ld	(hl),#0xFE
   02AD 21r89r00            383 	ld	hl,#(_level01Tiles + 0x0089)
   02B0 36 01               384 	ld	(hl),#0x01
   02B2 21r8Ar00            385 	ld	hl,#(_level01Tiles + 0x008a)
   02B5 36 FE               386 	ld	(hl),#0xFE
   02B7 21r8Br00            387 	ld	hl,#(_level01Tiles + 0x008b)
   02BA 36 01               388 	ld	(hl),#0x01
   02BC 21r8Cr00            389 	ld	hl,#(_level01Tiles + 0x008c)
   02BF 36 FE               390 	ld	(hl),#0xFE
   02C1 21r8Dr00            391 	ld	hl,#(_level01Tiles + 0x008d)
   02C4 36 01               392 	ld	(hl),#0x01
   02C6 21r8Er00            393 	ld	hl,#(_level01Tiles + 0x008e)
   02C9 36 FE               394 	ld	(hl),#0xFE
   02CB 21r8Fr00            395 	ld	hl,#(_level01Tiles + 0x008f)
   02CE 36 01               396 	ld	(hl),#0x01
   02D0 21r90r00            397 	ld	hl,#(_level01Tiles + 0x0090)
   02D3 36 FE               398 	ld	(hl),#0xFE
   02D5 21r91r00            399 	ld	hl,#(_level01Tiles + 0x0091)
   02D8 36 01               400 	ld	(hl),#0x01
   02DA 21r92r00            401 	ld	hl,#(_level01Tiles + 0x0092)
   02DD 36 FE               402 	ld	(hl),#0xFE
   02DF 21r93r00            403 	ld	hl,#(_level01Tiles + 0x0093)
   02E2 36 01               404 	ld	(hl),#0x01
   02E4 21r94r00            405 	ld	hl,#(_level01Tiles + 0x0094)
   02E7 36 FE               406 	ld	(hl),#0xFE
   02E9 21r95r00            407 	ld	hl,#(_level01Tiles + 0x0095)
   02EC 36 01               408 	ld	(hl),#0x01
   02EE 21r96r00            409 	ld	hl,#(_level01Tiles + 0x0096)
   02F1 36 FE               410 	ld	(hl),#0xFE
   02F3 21r97r00            411 	ld	hl,#(_level01Tiles + 0x0097)
   02F6 36 01               412 	ld	(hl),#0x01
   02F8 21r98r00            413 	ld	hl,#(_level01Tiles + 0x0098)
   02FB 36 FE               414 	ld	(hl),#0xFE
   02FD 21r99r00            415 	ld	hl,#(_level01Tiles + 0x0099)
   0300 36 01               416 	ld	(hl),#0x01
   0302 21r9Ar00            417 	ld	hl,#(_level01Tiles + 0x009a)
   0305 36 FF               418 	ld	(hl),#0xFF
   0307 01r9Br00            419 	ld	bc,#_level01Tiles + 155
   030A AF                  420 	xor	a, a
   030B 02                  421 	ld	(bc),a
   030C 21r9Cr00            422 	ld	hl,#(_level01Tiles + 0x009c)
   030F 36 FF               423 	ld	(hl),#0xFF
   0311 01r9Dr00            424 	ld	bc,#_level01Tiles + 157
   0314 AF                  425 	xor	a, a
   0315 02                  426 	ld	(bc),a
   0316 21r9Er00            427 	ld	hl,#(_level01Tiles + 0x009e)
   0319 36 FF               428 	ld	(hl),#0xFF
   031B 01r9Fr00            429 	ld	bc,#_level01Tiles + 159
   031E AF                  430 	xor	a, a
   031F 02                  431 	ld	(bc),a
   0320 01rA0r00            432 	ld	bc,#_level01Tiles + 160
   0323 AF                  433 	xor	a, a
   0324 02                  434 	ld	(bc),a
   0325 01rA1r00            435 	ld	bc,#_level01Tiles + 161
   0328 AF                  436 	xor	a, a
   0329 02                  437 	ld	(bc),a
   032A 01rA2r00            438 	ld	bc,#_level01Tiles + 162
   032D AF                  439 	xor	a, a
   032E 02                  440 	ld	(bc),a
   032F 01rA3r00            441 	ld	bc,#_level01Tiles + 163
   0332 AF                  442 	xor	a, a
   0333 02                  443 	ld	(bc),a
   0334 01rA4r00            444 	ld	bc,#_level01Tiles + 164
   0337 AF                  445 	xor	a, a
   0338 02                  446 	ld	(bc),a
   0339 01rA5r00            447 	ld	bc,#_level01Tiles + 165
   033C AF                  448 	xor	a, a
   033D 02                  449 	ld	(bc),a
   033E 01rA6r00            450 	ld	bc,#_level01Tiles + 166
   0341 AF                  451 	xor	a, a
   0342 02                  452 	ld	(bc),a
   0343 01rA7r00            453 	ld	bc,#_level01Tiles + 167
   0346 AF                  454 	xor	a, a
   0347 02                  455 	ld	(bc),a
   0348 01rA8r00            456 	ld	bc,#_level01Tiles + 168
   034B AF                  457 	xor	a, a
   034C 02                  458 	ld	(bc),a
   034D 01rA9r00            459 	ld	bc,#_level01Tiles + 169
   0350 AF                  460 	xor	a, a
   0351 02                  461 	ld	(bc),a
   0352 01rAAr00            462 	ld	bc,#_level01Tiles + 170
   0355 AF                  463 	xor	a, a
   0356 02                  464 	ld	(bc),a
   0357 21rABr00            465 	ld	hl,#(_level01Tiles + 0x00ab)
   035A 36 80               466 	ld	(hl),#0x80
   035C 01rACr00            467 	ld	bc,#_level01Tiles + 172
   035F AF                  468 	xor	a, a
   0360 02                  469 	ld	(bc),a
   0361 21rADr00            470 	ld	hl,#(_level01Tiles + 0x00ad)
   0364 36 80               471 	ld	(hl),#0x80
   0366 21rAEr00            472 	ld	hl,#(_level01Tiles + 0x00ae)
   0369 36 80               473 	ld	(hl),#0x80
   036B 21rAFr00            474 	ld	hl,#(_level01Tiles + 0x00af)
   036E 36 60               475 	ld	(hl),#0x60
   0370 21rB0r00            476 	ld	hl,#(_level01Tiles + 0x00b0)
   0373 36 E0               477 	ld	(hl),#0xE0
   0375 21rB1r00            478 	ld	hl,#(_level01Tiles + 0x00b1)
   0378 36 1F               479 	ld	(hl),#0x1F
   037A 21rB2r00            480 	ld	hl,#(_level01Tiles + 0x00b2)
   037D 36 FF               481 	ld	(hl),#0xFF
   037F 01rB3r00            482 	ld	bc,#_level01Tiles + 179
   0382 AF                  483 	xor	a, a
   0383 02                  484 	ld	(bc),a
   0384 21rB4r00            485 	ld	hl,#(_level01Tiles + 0x00b4)
   0387 36 FF               486 	ld	(hl),#0xFF
   0389 01rB5r00            487 	ld	bc,#_level01Tiles + 181
   038C AF                  488 	xor	a, a
   038D 02                  489 	ld	(bc),a
   038E 21rB6r00            490 	ld	hl,#(_level01Tiles + 0x00b6)
   0391 36 FF               491 	ld	(hl),#0xFF
   0393 01rB7r00            492 	ld	bc,#_level01Tiles + 183
   0396 AF                  493 	xor	a, a
   0397 02                  494 	ld	(bc),a
   0398 21rB8r00            495 	ld	hl,#(_level01Tiles + 0x00b8)
   039B 36 FF               496 	ld	(hl),#0xFF
   039D 01rB9r00            497 	ld	bc,#_level01Tiles + 185
   03A0 AF                  498 	xor	a, a
   03A1 02                  499 	ld	(bc),a
   03A2 21rBAr00            500 	ld	hl,#(_level01Tiles + 0x00ba)
   03A5 36 FF               501 	ld	(hl),#0xFF
   03A7 01rBBr00            502 	ld	bc,#_level01Tiles + 187
   03AA AF                  503 	xor	a, a
   03AB 02                  504 	ld	(bc),a
   03AC 21rBCr00            505 	ld	hl,#(_level01Tiles + 0x00bc)
   03AF 36 FF               506 	ld	(hl),#0xFF
   03B1 01rBDr00            507 	ld	bc,#_level01Tiles + 189
   03B4 AF                  508 	xor	a, a
   03B5 02                  509 	ld	(bc),a
   03B6 21rBEr00            510 	ld	hl,#(_level01Tiles + 0x00be)
   03B9 36 FF               511 	ld	(hl),#0xFF
   03BB 01rBFr00            512 	ld	bc,#_level01Tiles + 191
   03BE AF                  513 	xor	a, a
   03BF 02                  514 	ld	(bc),a
   03C0 21rC0r00            515 	ld	hl,#(_level01Tiles + 0x00c0)
   03C3 36 FF               516 	ld	(hl),#0xFF
   03C5 01rC1r00            517 	ld	bc,#_level01Tiles + 193
   03C8 AF                  518 	xor	a, a
   03C9 02                  519 	ld	(bc),a
   03CA 21rC2r00            520 	ld	hl,#(_level01Tiles + 0x00c2)
   03CD 36 FF               521 	ld	(hl),#0xFF
   03CF 01rC3r00            522 	ld	bc,#_level01Tiles + 195
   03D2 AF                  523 	xor	a, a
   03D3 02                  524 	ld	(bc),a
   03D4 21rC4r00            525 	ld	hl,#(_level01Tiles + 0x00c4)
   03D7 36 FF               526 	ld	(hl),#0xFF
   03D9 01rC5r00            527 	ld	bc,#_level01Tiles + 197
   03DC AF                  528 	xor	a, a
   03DD 02                  529 	ld	(bc),a
   03DE 21rC6r00            530 	ld	hl,#(_level01Tiles + 0x00c6)
   03E1 36 FF               531 	ld	(hl),#0xFF
   03E3 01rC7r00            532 	ld	bc,#_level01Tiles + 199
   03E6 AF                  533 	xor	a, a
   03E7 02                  534 	ld	(bc),a
   03E8 21rC8r00            535 	ld	hl,#(_level01Tiles + 0x00c8)
   03EB 36 FF               536 	ld	(hl),#0xFF
   03ED 01rC9r00            537 	ld	bc,#_level01Tiles + 201
   03F0 AF                  538 	xor	a, a
   03F1 02                  539 	ld	(bc),a
   03F2 21rCAr00            540 	ld	hl,#(_level01Tiles + 0x00ca)
   03F5 36 FF               541 	ld	(hl),#0xFF
   03F7 01rCBr00            542 	ld	bc,#_level01Tiles + 203
   03FA AF                  543 	xor	a, a
   03FB 02                  544 	ld	(bc),a
   03FC 21rCCr00            545 	ld	hl,#(_level01Tiles + 0x00cc)
   03FF 36 FF               546 	ld	(hl),#0xFF
   0401 01rCDr00            547 	ld	bc,#_level01Tiles + 205
   0404 AF                  548 	xor	a, a
   0405 02                  549 	ld	(bc),a
   0406 21rCEr00            550 	ld	hl,#(_level01Tiles + 0x00ce)
   0409 36 FF               551 	ld	(hl),#0xFF
   040B 01rCFr00            552 	ld	bc,#_level01Tiles + 207
   040E AF                  553 	xor	a, a
   040F 02                  554 	ld	(bc),a
                            555 ;level01Map.c:25: unsigned char level01Map[] =
   0410 21rD0r00            556 	ld	hl,#_level01Map
   0413 36 00               557 	ld	(hl),#0x00
   0415 01rD1r00            558 	ld	bc,#_level01Map + 1
   0418 AF                  559 	xor	a, a
   0419 02                  560 	ld	(bc),a
   041A 01rD2r00            561 	ld	bc,#_level01Map + 2
   041D AF                  562 	xor	a, a
   041E 02                  563 	ld	(bc),a
   041F 01rD3r00            564 	ld	bc,#_level01Map + 3
   0422 AF                  565 	xor	a, a
   0423 02                  566 	ld	(bc),a
   0424 01rD4r00            567 	ld	bc,#_level01Map + 4
   0427 AF                  568 	xor	a, a
   0428 02                  569 	ld	(bc),a
   0429 01rD5r00            570 	ld	bc,#_level01Map + 5
   042C AF                  571 	xor	a, a
   042D 02                  572 	ld	(bc),a
   042E 01rD6r00            573 	ld	bc,#_level01Map + 6
   0431 AF                  574 	xor	a, a
   0432 02                  575 	ld	(bc),a
   0433 01rD7r00            576 	ld	bc,#_level01Map + 7
   0436 AF                  577 	xor	a, a
   0437 02                  578 	ld	(bc),a
   0438 01rD8r00            579 	ld	bc,#_level01Map + 8
   043B AF                  580 	xor	a, a
   043C 02                  581 	ld	(bc),a
   043D 01rD9r00            582 	ld	bc,#_level01Map + 9
   0440 AF                  583 	xor	a, a
   0441 02                  584 	ld	(bc),a
   0442 01rDAr00            585 	ld	bc,#_level01Map + 10
   0445 AF                  586 	xor	a, a
   0446 02                  587 	ld	(bc),a
   0447 01rDBr00            588 	ld	bc,#_level01Map + 11
   044A AF                  589 	xor	a, a
   044B 02                  590 	ld	(bc),a
   044C 01rDCr00            591 	ld	bc,#_level01Map + 12
   044F AF                  592 	xor	a, a
   0450 02                  593 	ld	(bc),a
   0451 01rDDr00            594 	ld	bc,#_level01Map + 13
   0454 AF                  595 	xor	a, a
   0455 02                  596 	ld	(bc),a
   0456 01rDEr00            597 	ld	bc,#_level01Map + 14
   0459 AF                  598 	xor	a, a
   045A 02                  599 	ld	(bc),a
   045B 01rDFr00            600 	ld	bc,#_level01Map + 15
   045E AF                  601 	xor	a, a
   045F 02                  602 	ld	(bc),a
   0460 01rE0r00            603 	ld	bc,#_level01Map + 16
   0463 AF                  604 	xor	a, a
   0464 02                  605 	ld	(bc),a
   0465 01rE1r00            606 	ld	bc,#_level01Map + 17
   0468 AF                  607 	xor	a, a
   0469 02                  608 	ld	(bc),a
   046A 01rE2r00            609 	ld	bc,#_level01Map + 18
   046D AF                  610 	xor	a, a
   046E 02                  611 	ld	(bc),a
   046F 01rE3r00            612 	ld	bc,#_level01Map + 19
   0472 AF                  613 	xor	a, a
   0473 02                  614 	ld	(bc),a
   0474 01rE4r00            615 	ld	bc,#_level01Map + 20
   0477 AF                  616 	xor	a, a
   0478 02                  617 	ld	(bc),a
   0479 01rE5r00            618 	ld	bc,#_level01Map + 21
   047C AF                  619 	xor	a, a
   047D 02                  620 	ld	(bc),a
   047E 01rE6r00            621 	ld	bc,#_level01Map + 22
   0481 AF                  622 	xor	a, a
   0482 02                  623 	ld	(bc),a
   0483 01rE7r00            624 	ld	bc,#_level01Map + 23
   0486 AF                  625 	xor	a, a
   0487 02                  626 	ld	(bc),a
   0488 01rE8r00            627 	ld	bc,#_level01Map + 24
   048B AF                  628 	xor	a, a
   048C 02                  629 	ld	(bc),a
   048D 01rE9r00            630 	ld	bc,#_level01Map + 25
   0490 AF                  631 	xor	a, a
   0491 02                  632 	ld	(bc),a
   0492 01rEAr00            633 	ld	bc,#_level01Map + 26
   0495 AF                  634 	xor	a, a
   0496 02                  635 	ld	(bc),a
   0497 01rEBr00            636 	ld	bc,#_level01Map + 27
   049A AF                  637 	xor	a, a
   049B 02                  638 	ld	(bc),a
   049C 01rECr00            639 	ld	bc,#_level01Map + 28
   049F AF                  640 	xor	a, a
   04A0 02                  641 	ld	(bc),a
   04A1 01rEDr00            642 	ld	bc,#_level01Map + 29
   04A4 AF                  643 	xor	a, a
   04A5 02                  644 	ld	(bc),a
   04A6 01rEEr00            645 	ld	bc,#_level01Map + 30
   04A9 AF                  646 	xor	a, a
   04AA 02                  647 	ld	(bc),a
   04AB 01rEFr00            648 	ld	bc,#_level01Map + 31
   04AE AF                  649 	xor	a, a
   04AF 02                  650 	ld	(bc),a
   04B0 01rF0r00            651 	ld	bc,#_level01Map + 32
   04B3 AF                  652 	xor	a, a
   04B4 02                  653 	ld	(bc),a
   04B5 01rF1r00            654 	ld	bc,#_level01Map + 33
   04B8 AF                  655 	xor	a, a
   04B9 02                  656 	ld	(bc),a
   04BA 01rF2r00            657 	ld	bc,#_level01Map + 34
   04BD AF                  658 	xor	a, a
   04BE 02                  659 	ld	(bc),a
   04BF 01rF3r00            660 	ld	bc,#_level01Map + 35
   04C2 AF                  661 	xor	a, a
   04C3 02                  662 	ld	(bc),a
   04C4 01rF4r00            663 	ld	bc,#_level01Map + 36
   04C7 AF                  664 	xor	a, a
   04C8 02                  665 	ld	(bc),a
   04C9 01rF5r00            666 	ld	bc,#_level01Map + 37
   04CC AF                  667 	xor	a, a
   04CD 02                  668 	ld	(bc),a
   04CE 01rF6r00            669 	ld	bc,#_level01Map + 38
   04D1 AF                  670 	xor	a, a
   04D2 02                  671 	ld	(bc),a
   04D3 01rF7r00            672 	ld	bc,#_level01Map + 39
   04D6 AF                  673 	xor	a, a
   04D7 02                  674 	ld	(bc),a
   04D8 01rF8r00            675 	ld	bc,#_level01Map + 40
   04DB AF                  676 	xor	a, a
   04DC 02                  677 	ld	(bc),a
   04DD 01rF9r00            678 	ld	bc,#_level01Map + 41
   04E0 AF                  679 	xor	a, a
   04E1 02                  680 	ld	(bc),a
   04E2 01rFAr00            681 	ld	bc,#_level01Map + 42
   04E5 AF                  682 	xor	a, a
   04E6 02                  683 	ld	(bc),a
   04E7 01rFBr00            684 	ld	bc,#_level01Map + 43
   04EA AF                  685 	xor	a, a
   04EB 02                  686 	ld	(bc),a
   04EC 01rFCr00            687 	ld	bc,#_level01Map + 44
   04EF AF                  688 	xor	a, a
   04F0 02                  689 	ld	(bc),a
   04F1 01rFDr00            690 	ld	bc,#_level01Map + 45
   04F4 AF                  691 	xor	a, a
   04F5 02                  692 	ld	(bc),a
   04F6 01rFEr00            693 	ld	bc,#_level01Map + 46
   04F9 AF                  694 	xor	a, a
   04FA 02                  695 	ld	(bc),a
   04FB 01rFFr00            696 	ld	bc,#_level01Map + 47
   04FE AF                  697 	xor	a, a
   04FF 02                  698 	ld	(bc),a
   0500 01r00r01            699 	ld	bc,#_level01Map + 48
   0503 AF                  700 	xor	a, a
   0504 02                  701 	ld	(bc),a
   0505 01r01r01            702 	ld	bc,#_level01Map + 49
   0508 AF                  703 	xor	a, a
   0509 02                  704 	ld	(bc),a
   050A 01r02r01            705 	ld	bc,#_level01Map + 50
   050D AF                  706 	xor	a, a
   050E 02                  707 	ld	(bc),a
   050F 01r03r01            708 	ld	bc,#_level01Map + 51
   0512 AF                  709 	xor	a, a
   0513 02                  710 	ld	(bc),a
   0514 01r04r01            711 	ld	bc,#_level01Map + 52
   0517 AF                  712 	xor	a, a
   0518 02                  713 	ld	(bc),a
   0519 01r05r01            714 	ld	bc,#_level01Map + 53
   051C AF                  715 	xor	a, a
   051D 02                  716 	ld	(bc),a
   051E 01r06r01            717 	ld	bc,#_level01Map + 54
   0521 AF                  718 	xor	a, a
   0522 02                  719 	ld	(bc),a
   0523 01r07r01            720 	ld	bc,#_level01Map + 55
   0526 AF                  721 	xor	a, a
   0527 02                  722 	ld	(bc),a
   0528 01r08r01            723 	ld	bc,#_level01Map + 56
   052B AF                  724 	xor	a, a
   052C 02                  725 	ld	(bc),a
   052D 01r09r01            726 	ld	bc,#_level01Map + 57
   0530 AF                  727 	xor	a, a
   0531 02                  728 	ld	(bc),a
   0532 01r0Ar01            729 	ld	bc,#_level01Map + 58
   0535 AF                  730 	xor	a, a
   0536 02                  731 	ld	(bc),a
   0537 01r0Br01            732 	ld	bc,#_level01Map + 59
   053A AF                  733 	xor	a, a
   053B 02                  734 	ld	(bc),a
   053C 01r0Cr01            735 	ld	bc,#_level01Map + 60
   053F AF                  736 	xor	a, a
   0540 02                  737 	ld	(bc),a
   0541 01r0Dr01            738 	ld	bc,#_level01Map + 61
   0544 AF                  739 	xor	a, a
   0545 02                  740 	ld	(bc),a
   0546 01r0Er01            741 	ld	bc,#_level01Map + 62
   0549 AF                  742 	xor	a, a
   054A 02                  743 	ld	(bc),a
   054B 01r0Fr01            744 	ld	bc,#_level01Map + 63
   054E AF                  745 	xor	a, a
   054F 02                  746 	ld	(bc),a
   0550 01r10r01            747 	ld	bc,#_level01Map + 64
   0553 AF                  748 	xor	a, a
   0554 02                  749 	ld	(bc),a
   0555 01r11r01            750 	ld	bc,#_level01Map + 65
   0558 AF                  751 	xor	a, a
   0559 02                  752 	ld	(bc),a
   055A 01r12r01            753 	ld	bc,#_level01Map + 66
   055D AF                  754 	xor	a, a
   055E 02                  755 	ld	(bc),a
   055F 01r13r01            756 	ld	bc,#_level01Map + 67
   0562 AF                  757 	xor	a, a
   0563 02                  758 	ld	(bc),a
   0564 01r14r01            759 	ld	bc,#_level01Map + 68
   0567 AF                  760 	xor	a, a
   0568 02                  761 	ld	(bc),a
   0569 01r15r01            762 	ld	bc,#_level01Map + 69
   056C AF                  763 	xor	a, a
   056D 02                  764 	ld	(bc),a
   056E 01r16r01            765 	ld	bc,#_level01Map + 70
   0571 AF                  766 	xor	a, a
   0572 02                  767 	ld	(bc),a
   0573 01r17r01            768 	ld	bc,#_level01Map + 71
   0576 AF                  769 	xor	a, a
   0577 02                  770 	ld	(bc),a
   0578 01r18r01            771 	ld	bc,#_level01Map + 72
   057B AF                  772 	xor	a, a
   057C 02                  773 	ld	(bc),a
   057D 01r19r01            774 	ld	bc,#_level01Map + 73
   0580 AF                  775 	xor	a, a
   0581 02                  776 	ld	(bc),a
   0582 01r1Ar01            777 	ld	bc,#_level01Map + 74
   0585 AF                  778 	xor	a, a
   0586 02                  779 	ld	(bc),a
   0587 01r1Br01            780 	ld	bc,#_level01Map + 75
   058A AF                  781 	xor	a, a
   058B 02                  782 	ld	(bc),a
   058C 01r1Cr01            783 	ld	bc,#_level01Map + 76
   058F AF                  784 	xor	a, a
   0590 02                  785 	ld	(bc),a
   0591 01r1Dr01            786 	ld	bc,#_level01Map + 77
   0594 AF                  787 	xor	a, a
   0595 02                  788 	ld	(bc),a
   0596 01r1Er01            789 	ld	bc,#_level01Map + 78
   0599 AF                  790 	xor	a, a
   059A 02                  791 	ld	(bc),a
   059B 01r1Fr01            792 	ld	bc,#_level01Map + 79
   059E AF                  793 	xor	a, a
   059F 02                  794 	ld	(bc),a
   05A0 01r20r01            795 	ld	bc,#_level01Map + 80
   05A3 AF                  796 	xor	a, a
   05A4 02                  797 	ld	(bc),a
   05A5 01r21r01            798 	ld	bc,#_level01Map + 81
   05A8 AF                  799 	xor	a, a
   05A9 02                  800 	ld	(bc),a
   05AA 01r22r01            801 	ld	bc,#_level01Map + 82
   05AD AF                  802 	xor	a, a
   05AE 02                  803 	ld	(bc),a
   05AF 01r23r01            804 	ld	bc,#_level01Map + 83
   05B2 AF                  805 	xor	a, a
   05B3 02                  806 	ld	(bc),a
   05B4 01r24r01            807 	ld	bc,#_level01Map + 84
   05B7 AF                  808 	xor	a, a
   05B8 02                  809 	ld	(bc),a
   05B9 01r25r01            810 	ld	bc,#_level01Map + 85
   05BC AF                  811 	xor	a, a
   05BD 02                  812 	ld	(bc),a
   05BE 01r26r01            813 	ld	bc,#_level01Map + 86
   05C1 AF                  814 	xor	a, a
   05C2 02                  815 	ld	(bc),a
   05C3 01r27r01            816 	ld	bc,#_level01Map + 87
   05C6 AF                  817 	xor	a, a
   05C7 02                  818 	ld	(bc),a
   05C8 01r28r01            819 	ld	bc,#_level01Map + 88
   05CB AF                  820 	xor	a, a
   05CC 02                  821 	ld	(bc),a
   05CD 01r29r01            822 	ld	bc,#_level01Map + 89
   05D0 AF                  823 	xor	a, a
   05D1 02                  824 	ld	(bc),a
   05D2 01r2Ar01            825 	ld	bc,#_level01Map + 90
   05D5 AF                  826 	xor	a, a
   05D6 02                  827 	ld	(bc),a
   05D7 01r2Br01            828 	ld	bc,#_level01Map + 91
   05DA AF                  829 	xor	a, a
   05DB 02                  830 	ld	(bc),a
   05DC 01r2Cr01            831 	ld	bc,#_level01Map + 92
   05DF AF                  832 	xor	a, a
   05E0 02                  833 	ld	(bc),a
   05E1 01r2Dr01            834 	ld	bc,#_level01Map + 93
   05E4 AF                  835 	xor	a, a
   05E5 02                  836 	ld	(bc),a
   05E6 01r2Er01            837 	ld	bc,#_level01Map + 94
   05E9 AF                  838 	xor	a, a
   05EA 02                  839 	ld	(bc),a
   05EB 01r2Fr01            840 	ld	bc,#_level01Map + 95
   05EE AF                  841 	xor	a, a
   05EF 02                  842 	ld	(bc),a
   05F0 01r30r01            843 	ld	bc,#_level01Map + 96
   05F3 AF                  844 	xor	a, a
   05F4 02                  845 	ld	(bc),a
   05F5 01r31r01            846 	ld	bc,#_level01Map + 97
   05F8 AF                  847 	xor	a, a
   05F9 02                  848 	ld	(bc),a
   05FA 01r32r01            849 	ld	bc,#_level01Map + 98
   05FD AF                  850 	xor	a, a
   05FE 02                  851 	ld	(bc),a
   05FF 01r33r01            852 	ld	bc,#_level01Map + 99
   0602 AF                  853 	xor	a, a
   0603 02                  854 	ld	(bc),a
   0604 01r34r01            855 	ld	bc,#_level01Map + 100
   0607 AF                  856 	xor	a, a
   0608 02                  857 	ld	(bc),a
   0609 01r35r01            858 	ld	bc,#_level01Map + 101
   060C AF                  859 	xor	a, a
   060D 02                  860 	ld	(bc),a
   060E 01r36r01            861 	ld	bc,#_level01Map + 102
   0611 AF                  862 	xor	a, a
   0612 02                  863 	ld	(bc),a
   0613 01r37r01            864 	ld	bc,#_level01Map + 103
   0616 AF                  865 	xor	a, a
   0617 02                  866 	ld	(bc),a
   0618 01r38r01            867 	ld	bc,#_level01Map + 104
   061B AF                  868 	xor	a, a
   061C 02                  869 	ld	(bc),a
   061D 01r39r01            870 	ld	bc,#_level01Map + 105
   0620 AF                  871 	xor	a, a
   0621 02                  872 	ld	(bc),a
   0622 01r3Ar01            873 	ld	bc,#_level01Map + 106
   0625 AF                  874 	xor	a, a
   0626 02                  875 	ld	(bc),a
   0627 01r3Br01            876 	ld	bc,#_level01Map + 107
   062A AF                  877 	xor	a, a
   062B 02                  878 	ld	(bc),a
   062C 01r3Cr01            879 	ld	bc,#_level01Map + 108
   062F AF                  880 	xor	a, a
   0630 02                  881 	ld	(bc),a
   0631 01r3Dr01            882 	ld	bc,#_level01Map + 109
   0634 AF                  883 	xor	a, a
   0635 02                  884 	ld	(bc),a
   0636 01r3Er01            885 	ld	bc,#_level01Map + 110
   0639 AF                  886 	xor	a, a
   063A 02                  887 	ld	(bc),a
   063B 01r3Fr01            888 	ld	bc,#_level01Map + 111
   063E AF                  889 	xor	a, a
   063F 02                  890 	ld	(bc),a
   0640 01r40r01            891 	ld	bc,#_level01Map + 112
   0643 AF                  892 	xor	a, a
   0644 02                  893 	ld	(bc),a
   0645 01r41r01            894 	ld	bc,#_level01Map + 113
   0648 AF                  895 	xor	a, a
   0649 02                  896 	ld	(bc),a
   064A 01r42r01            897 	ld	bc,#_level01Map + 114
   064D AF                  898 	xor	a, a
   064E 02                  899 	ld	(bc),a
   064F 01r43r01            900 	ld	bc,#_level01Map + 115
   0652 AF                  901 	xor	a, a
   0653 02                  902 	ld	(bc),a
   0654 01r44r01            903 	ld	bc,#_level01Map + 116
   0657 AF                  904 	xor	a, a
   0658 02                  905 	ld	(bc),a
   0659 01r45r01            906 	ld	bc,#_level01Map + 117
   065C AF                  907 	xor	a, a
   065D 02                  908 	ld	(bc),a
   065E 01r46r01            909 	ld	bc,#_level01Map + 118
   0661 AF                  910 	xor	a, a
   0662 02                  911 	ld	(bc),a
   0663 01r47r01            912 	ld	bc,#_level01Map + 119
   0666 AF                  913 	xor	a, a
   0667 02                  914 	ld	(bc),a
   0668 01r48r01            915 	ld	bc,#_level01Map + 120
   066B AF                  916 	xor	a, a
   066C 02                  917 	ld	(bc),a
   066D 01r49r01            918 	ld	bc,#_level01Map + 121
   0670 AF                  919 	xor	a, a
   0671 02                  920 	ld	(bc),a
   0672 01r4Ar01            921 	ld	bc,#_level01Map + 122
   0675 AF                  922 	xor	a, a
   0676 02                  923 	ld	(bc),a
   0677 01r4Br01            924 	ld	bc,#_level01Map + 123
   067A AF                  925 	xor	a, a
   067B 02                  926 	ld	(bc),a
   067C 01r4Cr01            927 	ld	bc,#_level01Map + 124
   067F AF                  928 	xor	a, a
   0680 02                  929 	ld	(bc),a
   0681 01r4Dr01            930 	ld	bc,#_level01Map + 125
   0684 AF                  931 	xor	a, a
   0685 02                  932 	ld	(bc),a
   0686 01r4Er01            933 	ld	bc,#_level01Map + 126
   0689 AF                  934 	xor	a, a
   068A 02                  935 	ld	(bc),a
   068B 01r4Fr01            936 	ld	bc,#_level01Map + 127
   068E AF                  937 	xor	a, a
   068F 02                  938 	ld	(bc),a
   0690 01r50r01            939 	ld	bc,#_level01Map + 128
   0693 AF                  940 	xor	a, a
   0694 02                  941 	ld	(bc),a
   0695 01r51r01            942 	ld	bc,#_level01Map + 129
   0698 AF                  943 	xor	a, a
   0699 02                  944 	ld	(bc),a
   069A 01r52r01            945 	ld	bc,#_level01Map + 130
   069D AF                  946 	xor	a, a
   069E 02                  947 	ld	(bc),a
   069F 01r53r01            948 	ld	bc,#_level01Map + 131
   06A2 AF                  949 	xor	a, a
   06A3 02                  950 	ld	(bc),a
   06A4 01r54r01            951 	ld	bc,#_level01Map + 132
   06A7 AF                  952 	xor	a, a
   06A8 02                  953 	ld	(bc),a
   06A9 01r55r01            954 	ld	bc,#_level01Map + 133
   06AC AF                  955 	xor	a, a
   06AD 02                  956 	ld	(bc),a
   06AE 01r56r01            957 	ld	bc,#_level01Map + 134
   06B1 AF                  958 	xor	a, a
   06B2 02                  959 	ld	(bc),a
   06B3 01r57r01            960 	ld	bc,#_level01Map + 135
   06B6 AF                  961 	xor	a, a
   06B7 02                  962 	ld	(bc),a
   06B8 01r58r01            963 	ld	bc,#_level01Map + 136
   06BB AF                  964 	xor	a, a
   06BC 02                  965 	ld	(bc),a
   06BD 01r59r01            966 	ld	bc,#_level01Map + 137
   06C0 AF                  967 	xor	a, a
   06C1 02                  968 	ld	(bc),a
   06C2 01r5Ar01            969 	ld	bc,#_level01Map + 138
   06C5 AF                  970 	xor	a, a
   06C6 02                  971 	ld	(bc),a
   06C7 01r5Br01            972 	ld	bc,#_level01Map + 139
   06CA AF                  973 	xor	a, a
   06CB 02                  974 	ld	(bc),a
   06CC 01r5Cr01            975 	ld	bc,#_level01Map + 140
   06CF AF                  976 	xor	a, a
   06D0 02                  977 	ld	(bc),a
   06D1 01r5Dr01            978 	ld	bc,#_level01Map + 141
   06D4 AF                  979 	xor	a, a
   06D5 02                  980 	ld	(bc),a
   06D6 01r5Er01            981 	ld	bc,#_level01Map + 142
   06D9 AF                  982 	xor	a, a
   06DA 02                  983 	ld	(bc),a
   06DB 01r5Fr01            984 	ld	bc,#_level01Map + 143
   06DE AF                  985 	xor	a, a
   06DF 02                  986 	ld	(bc),a
   06E0 01r60r01            987 	ld	bc,#_level01Map + 144
   06E3 AF                  988 	xor	a, a
   06E4 02                  989 	ld	(bc),a
   06E5 01r61r01            990 	ld	bc,#_level01Map + 145
   06E8 AF                  991 	xor	a, a
   06E9 02                  992 	ld	(bc),a
   06EA 01r62r01            993 	ld	bc,#_level01Map + 146
   06ED AF                  994 	xor	a, a
   06EE 02                  995 	ld	(bc),a
   06EF 01r63r01            996 	ld	bc,#_level01Map + 147
   06F2 AF                  997 	xor	a, a
   06F3 02                  998 	ld	(bc),a
   06F4 01r64r01            999 	ld	bc,#_level01Map + 148
   06F7 AF                 1000 	xor	a, a
   06F8 02                 1001 	ld	(bc),a
   06F9 01r65r01           1002 	ld	bc,#_level01Map + 149
   06FC AF                 1003 	xor	a, a
   06FD 02                 1004 	ld	(bc),a
   06FE 01r66r01           1005 	ld	bc,#_level01Map + 150
   0701 AF                 1006 	xor	a, a
   0702 02                 1007 	ld	(bc),a
   0703 01r67r01           1008 	ld	bc,#_level01Map + 151
   0706 AF                 1009 	xor	a, a
   0707 02                 1010 	ld	(bc),a
   0708 01r68r01           1011 	ld	bc,#_level01Map + 152
   070B AF                 1012 	xor	a, a
   070C 02                 1013 	ld	(bc),a
   070D 01r69r01           1014 	ld	bc,#_level01Map + 153
   0710 AF                 1015 	xor	a, a
   0711 02                 1016 	ld	(bc),a
   0712 01r6Ar01           1017 	ld	bc,#_level01Map + 154
   0715 AF                 1018 	xor	a, a
   0716 02                 1019 	ld	(bc),a
   0717 01r6Br01           1020 	ld	bc,#_level01Map + 155
   071A AF                 1021 	xor	a, a
   071B 02                 1022 	ld	(bc),a
   071C 01r6Cr01           1023 	ld	bc,#_level01Map + 156
   071F AF                 1024 	xor	a, a
   0720 02                 1025 	ld	(bc),a
   0721 01r6Dr01           1026 	ld	bc,#_level01Map + 157
   0724 AF                 1027 	xor	a, a
   0725 02                 1028 	ld	(bc),a
   0726 01r6Er01           1029 	ld	bc,#_level01Map + 158
   0729 AF                 1030 	xor	a, a
   072A 02                 1031 	ld	(bc),a
   072B 01r6Fr01           1032 	ld	bc,#_level01Map + 159
   072E AF                 1033 	xor	a, a
   072F 02                 1034 	ld	(bc),a
   0730 01r70r01           1035 	ld	bc,#_level01Map + 160
   0733 AF                 1036 	xor	a, a
   0734 02                 1037 	ld	(bc),a
   0735 01r71r01           1038 	ld	bc,#_level01Map + 161
   0738 AF                 1039 	xor	a, a
   0739 02                 1040 	ld	(bc),a
   073A 01r72r01           1041 	ld	bc,#_level01Map + 162
   073D AF                 1042 	xor	a, a
   073E 02                 1043 	ld	(bc),a
   073F 01r73r01           1044 	ld	bc,#_level01Map + 163
   0742 AF                 1045 	xor	a, a
   0743 02                 1046 	ld	(bc),a
   0744 01r74r01           1047 	ld	bc,#_level01Map + 164
   0747 AF                 1048 	xor	a, a
   0748 02                 1049 	ld	(bc),a
   0749 01r75r01           1050 	ld	bc,#_level01Map + 165
   074C AF                 1051 	xor	a, a
   074D 02                 1052 	ld	(bc),a
   074E 01r76r01           1053 	ld	bc,#_level01Map + 166
   0751 AF                 1054 	xor	a, a
   0752 02                 1055 	ld	(bc),a
   0753 01r77r01           1056 	ld	bc,#_level01Map + 167
   0756 AF                 1057 	xor	a, a
   0757 02                 1058 	ld	(bc),a
   0758 01r78r01           1059 	ld	bc,#_level01Map + 168
   075B AF                 1060 	xor	a, a
   075C 02                 1061 	ld	(bc),a
   075D 01r79r01           1062 	ld	bc,#_level01Map + 169
   0760 AF                 1063 	xor	a, a
   0761 02                 1064 	ld	(bc),a
   0762 01r7Ar01           1065 	ld	bc,#_level01Map + 170
   0765 AF                 1066 	xor	a, a
   0766 02                 1067 	ld	(bc),a
   0767 01r7Br01           1068 	ld	bc,#_level01Map + 171
   076A AF                 1069 	xor	a, a
   076B 02                 1070 	ld	(bc),a
   076C 01r7Cr01           1071 	ld	bc,#_level01Map + 172
   076F AF                 1072 	xor	a, a
   0770 02                 1073 	ld	(bc),a
   0771 01r7Dr01           1074 	ld	bc,#_level01Map + 173
   0774 AF                 1075 	xor	a, a
   0775 02                 1076 	ld	(bc),a
   0776 01r7Er01           1077 	ld	bc,#_level01Map + 174
   0779 AF                 1078 	xor	a, a
   077A 02                 1079 	ld	(bc),a
   077B 01r7Fr01           1080 	ld	bc,#_level01Map + 175
   077E AF                 1081 	xor	a, a
   077F 02                 1082 	ld	(bc),a
   0780 01r80r01           1083 	ld	bc,#_level01Map + 176
   0783 AF                 1084 	xor	a, a
   0784 02                 1085 	ld	(bc),a
   0785 01r81r01           1086 	ld	bc,#_level01Map + 177
   0788 AF                 1087 	xor	a, a
   0789 02                 1088 	ld	(bc),a
   078A 01r82r01           1089 	ld	bc,#_level01Map + 178
   078D AF                 1090 	xor	a, a
   078E 02                 1091 	ld	(bc),a
   078F 01r83r01           1092 	ld	bc,#_level01Map + 179
   0792 AF                 1093 	xor	a, a
   0793 02                 1094 	ld	(bc),a
   0794 01r84r01           1095 	ld	bc,#_level01Map + 180
   0797 AF                 1096 	xor	a, a
   0798 02                 1097 	ld	(bc),a
   0799 01r85r01           1098 	ld	bc,#_level01Map + 181
   079C AF                 1099 	xor	a, a
   079D 02                 1100 	ld	(bc),a
   079E 01r86r01           1101 	ld	bc,#_level01Map + 182
   07A1 AF                 1102 	xor	a, a
   07A2 02                 1103 	ld	(bc),a
   07A3 01r87r01           1104 	ld	bc,#_level01Map + 183
   07A6 AF                 1105 	xor	a, a
   07A7 02                 1106 	ld	(bc),a
   07A8 01r88r01           1107 	ld	bc,#_level01Map + 184
   07AB AF                 1108 	xor	a, a
   07AC 02                 1109 	ld	(bc),a
   07AD 01r89r01           1110 	ld	bc,#_level01Map + 185
   07B0 AF                 1111 	xor	a, a
   07B1 02                 1112 	ld	(bc),a
   07B2 01r8Ar01           1113 	ld	bc,#_level01Map + 186
   07B5 AF                 1114 	xor	a, a
   07B6 02                 1115 	ld	(bc),a
   07B7 01r8Br01           1116 	ld	bc,#_level01Map + 187
   07BA AF                 1117 	xor	a, a
   07BB 02                 1118 	ld	(bc),a
   07BC 01r8Cr01           1119 	ld	bc,#_level01Map + 188
   07BF AF                 1120 	xor	a, a
   07C0 02                 1121 	ld	(bc),a
   07C1 01r8Dr01           1122 	ld	bc,#_level01Map + 189
   07C4 AF                 1123 	xor	a, a
   07C5 02                 1124 	ld	(bc),a
   07C6 01r8Er01           1125 	ld	bc,#_level01Map + 190
   07C9 AF                 1126 	xor	a, a
   07CA 02                 1127 	ld	(bc),a
   07CB 01r8Fr01           1128 	ld	bc,#_level01Map + 191
   07CE AF                 1129 	xor	a, a
   07CF 02                 1130 	ld	(bc),a
   07D0 01r90r01           1131 	ld	bc,#_level01Map + 192
   07D3 AF                 1132 	xor	a, a
   07D4 02                 1133 	ld	(bc),a
   07D5 01r91r01           1134 	ld	bc,#_level01Map + 193
   07D8 AF                 1135 	xor	a, a
   07D9 02                 1136 	ld	(bc),a
   07DA 01r92r01           1137 	ld	bc,#_level01Map + 194
   07DD AF                 1138 	xor	a, a
   07DE 02                 1139 	ld	(bc),a
   07DF 01r93r01           1140 	ld	bc,#_level01Map + 195
   07E2 AF                 1141 	xor	a, a
   07E3 02                 1142 	ld	(bc),a
   07E4 01r94r01           1143 	ld	bc,#_level01Map + 196
   07E7 AF                 1144 	xor	a, a
   07E8 02                 1145 	ld	(bc),a
   07E9 01r95r01           1146 	ld	bc,#_level01Map + 197
   07EC AF                 1147 	xor	a, a
   07ED 02                 1148 	ld	(bc),a
   07EE 01r96r01           1149 	ld	bc,#_level01Map + 198
   07F1 AF                 1150 	xor	a, a
   07F2 02                 1151 	ld	(bc),a
   07F3 01r97r01           1152 	ld	bc,#_level01Map + 199
   07F6 AF                 1153 	xor	a, a
   07F7 02                 1154 	ld	(bc),a
   07F8 01r98r01           1155 	ld	bc,#_level01Map + 200
   07FB AF                 1156 	xor	a, a
   07FC 02                 1157 	ld	(bc),a
   07FD 01r99r01           1158 	ld	bc,#_level01Map + 201
   0800 AF                 1159 	xor	a, a
   0801 02                 1160 	ld	(bc),a
   0802 01r9Ar01           1161 	ld	bc,#_level01Map + 202
   0805 AF                 1162 	xor	a, a
   0806 02                 1163 	ld	(bc),a
   0807 01r9Br01           1164 	ld	bc,#_level01Map + 203
   080A AF                 1165 	xor	a, a
   080B 02                 1166 	ld	(bc),a
   080C 01r9Cr01           1167 	ld	bc,#_level01Map + 204
   080F AF                 1168 	xor	a, a
   0810 02                 1169 	ld	(bc),a
   0811 01r9Dr01           1170 	ld	bc,#_level01Map + 205
   0814 AF                 1171 	xor	a, a
   0815 02                 1172 	ld	(bc),a
   0816 01r9Er01           1173 	ld	bc,#_level01Map + 206
   0819 AF                 1174 	xor	a, a
   081A 02                 1175 	ld	(bc),a
   081B 01r9Fr01           1176 	ld	bc,#_level01Map + 207
   081E AF                 1177 	xor	a, a
   081F 02                 1178 	ld	(bc),a
   0820 01rA0r01           1179 	ld	bc,#_level01Map + 208
   0823 AF                 1180 	xor	a, a
   0824 02                 1181 	ld	(bc),a
   0825 01rA1r01           1182 	ld	bc,#_level01Map + 209
   0828 AF                 1183 	xor	a, a
   0829 02                 1184 	ld	(bc),a
   082A 01rA2r01           1185 	ld	bc,#_level01Map + 210
   082D AF                 1186 	xor	a, a
   082E 02                 1187 	ld	(bc),a
   082F 01rA3r01           1188 	ld	bc,#_level01Map + 211
   0832 AF                 1189 	xor	a, a
   0833 02                 1190 	ld	(bc),a
   0834 01rA4r01           1191 	ld	bc,#_level01Map + 212
   0837 AF                 1192 	xor	a, a
   0838 02                 1193 	ld	(bc),a
   0839 01rA5r01           1194 	ld	bc,#_level01Map + 213
   083C AF                 1195 	xor	a, a
   083D 02                 1196 	ld	(bc),a
   083E 01rA6r01           1197 	ld	bc,#_level01Map + 214
   0841 AF                 1198 	xor	a, a
   0842 02                 1199 	ld	(bc),a
   0843 01rA7r01           1200 	ld	bc,#_level01Map + 215
   0846 AF                 1201 	xor	a, a
   0847 02                 1202 	ld	(bc),a
   0848 01rA8r01           1203 	ld	bc,#_level01Map + 216
   084B AF                 1204 	xor	a, a
   084C 02                 1205 	ld	(bc),a
   084D 01rA9r01           1206 	ld	bc,#_level01Map + 217
   0850 AF                 1207 	xor	a, a
   0851 02                 1208 	ld	(bc),a
   0852 01rAAr01           1209 	ld	bc,#_level01Map + 218
   0855 AF                 1210 	xor	a, a
   0856 02                 1211 	ld	(bc),a
   0857 01rABr01           1212 	ld	bc,#_level01Map + 219
   085A AF                 1213 	xor	a, a
   085B 02                 1214 	ld	(bc),a
   085C 01rACr01           1215 	ld	bc,#_level01Map + 220
   085F AF                 1216 	xor	a, a
   0860 02                 1217 	ld	(bc),a
   0861 01rADr01           1218 	ld	bc,#_level01Map + 221
   0864 AF                 1219 	xor	a, a
   0865 02                 1220 	ld	(bc),a
   0866 01rAEr01           1221 	ld	bc,#_level01Map + 222
   0869 AF                 1222 	xor	a, a
   086A 02                 1223 	ld	(bc),a
   086B 01rAFr01           1224 	ld	bc,#_level01Map + 223
   086E AF                 1225 	xor	a, a
   086F 02                 1226 	ld	(bc),a
   0870 01rB0r01           1227 	ld	bc,#_level01Map + 224
   0873 AF                 1228 	xor	a, a
   0874 02                 1229 	ld	(bc),a
   0875 01rB1r01           1230 	ld	bc,#_level01Map + 225
   0878 AF                 1231 	xor	a, a
   0879 02                 1232 	ld	(bc),a
   087A 01rB2r01           1233 	ld	bc,#_level01Map + 226
   087D AF                 1234 	xor	a, a
   087E 02                 1235 	ld	(bc),a
   087F 01rB3r01           1236 	ld	bc,#_level01Map + 227
   0882 AF                 1237 	xor	a, a
   0883 02                 1238 	ld	(bc),a
   0884 01rB4r01           1239 	ld	bc,#_level01Map + 228
   0887 AF                 1240 	xor	a, a
   0888 02                 1241 	ld	(bc),a
   0889 01rB5r01           1242 	ld	bc,#_level01Map + 229
   088C AF                 1243 	xor	a, a
   088D 02                 1244 	ld	(bc),a
   088E 01rB6r01           1245 	ld	bc,#_level01Map + 230
   0891 AF                 1246 	xor	a, a
   0892 02                 1247 	ld	(bc),a
   0893 01rB7r01           1248 	ld	bc,#_level01Map + 231
   0896 AF                 1249 	xor	a, a
   0897 02                 1250 	ld	(bc),a
   0898 01rB8r01           1251 	ld	bc,#_level01Map + 232
   089B AF                 1252 	xor	a, a
   089C 02                 1253 	ld	(bc),a
   089D 01rB9r01           1254 	ld	bc,#_level01Map + 233
   08A0 AF                 1255 	xor	a, a
   08A1 02                 1256 	ld	(bc),a
   08A2 01rBAr01           1257 	ld	bc,#_level01Map + 234
   08A5 AF                 1258 	xor	a, a
   08A6 02                 1259 	ld	(bc),a
   08A7 01rBBr01           1260 	ld	bc,#_level01Map + 235
   08AA AF                 1261 	xor	a, a
   08AB 02                 1262 	ld	(bc),a
   08AC 01rBCr01           1263 	ld	bc,#_level01Map + 236
   08AF AF                 1264 	xor	a, a
   08B0 02                 1265 	ld	(bc),a
   08B1 01rBDr01           1266 	ld	bc,#_level01Map + 237
   08B4 AF                 1267 	xor	a, a
   08B5 02                 1268 	ld	(bc),a
   08B6 01rBEr01           1269 	ld	bc,#_level01Map + 238
   08B9 AF                 1270 	xor	a, a
   08BA 02                 1271 	ld	(bc),a
   08BB 01rBFr01           1272 	ld	bc,#_level01Map + 239
   08BE AF                 1273 	xor	a, a
   08BF 02                 1274 	ld	(bc),a
   08C0 01rC0r01           1275 	ld	bc,#_level01Map + 240
   08C3 AF                 1276 	xor	a, a
   08C4 02                 1277 	ld	(bc),a
   08C5 01rC1r01           1278 	ld	bc,#_level01Map + 241
   08C8 AF                 1279 	xor	a, a
   08C9 02                 1280 	ld	(bc),a
   08CA 01rC2r01           1281 	ld	bc,#_level01Map + 242
   08CD AF                 1282 	xor	a, a
   08CE 02                 1283 	ld	(bc),a
   08CF 01rC3r01           1284 	ld	bc,#_level01Map + 243
   08D2 AF                 1285 	xor	a, a
   08D3 02                 1286 	ld	(bc),a
   08D4 01rC4r01           1287 	ld	bc,#_level01Map + 244
   08D7 AF                 1288 	xor	a, a
   08D8 02                 1289 	ld	(bc),a
   08D9 01rC5r01           1290 	ld	bc,#_level01Map + 245
   08DC AF                 1291 	xor	a, a
   08DD 02                 1292 	ld	(bc),a
   08DE 01rC6r01           1293 	ld	bc,#_level01Map + 246
   08E1 AF                 1294 	xor	a, a
   08E2 02                 1295 	ld	(bc),a
   08E3 01rC7r01           1296 	ld	bc,#_level01Map + 247
   08E6 AF                 1297 	xor	a, a
   08E7 02                 1298 	ld	(bc),a
   08E8 01rC8r01           1299 	ld	bc,#_level01Map + 248
   08EB AF                 1300 	xor	a, a
   08EC 02                 1301 	ld	(bc),a
   08ED 01rC9r01           1302 	ld	bc,#_level01Map + 249
   08F0 AF                 1303 	xor	a, a
   08F1 02                 1304 	ld	(bc),a
   08F2 01rCAr01           1305 	ld	bc,#_level01Map + 250
   08F5 AF                 1306 	xor	a, a
   08F6 02                 1307 	ld	(bc),a
   08F7 01rCBr01           1308 	ld	bc,#_level01Map + 251
   08FA AF                 1309 	xor	a, a
   08FB 02                 1310 	ld	(bc),a
   08FC 01rCCr01           1311 	ld	bc,#_level01Map + 252
   08FF AF                 1312 	xor	a, a
   0900 02                 1313 	ld	(bc),a
   0901 01rCDr01           1314 	ld	bc,#_level01Map + 253
   0904 AF                 1315 	xor	a, a
   0905 02                 1316 	ld	(bc),a
   0906 01rCEr01           1317 	ld	bc,#_level01Map + 254
   0909 AF                 1318 	xor	a, a
   090A 02                 1319 	ld	(bc),a
   090B 01rCFr01           1320 	ld	bc,#_level01Map + 255
   090E AF                 1321 	xor	a, a
   090F 02                 1322 	ld	(bc),a
   0910 01rD0r01           1323 	ld	bc,#_level01Map + 256
   0913 AF                 1324 	xor	a, a
   0914 02                 1325 	ld	(bc),a
   0915 01rD1r01           1326 	ld	bc,#_level01Map + 257
   0918 AF                 1327 	xor	a, a
   0919 02                 1328 	ld	(bc),a
   091A 01rD2r01           1329 	ld	bc,#_level01Map + 258
   091D AF                 1330 	xor	a, a
   091E 02                 1331 	ld	(bc),a
   091F 01rD3r01           1332 	ld	bc,#_level01Map + 259
   0922 AF                 1333 	xor	a, a
   0923 02                 1334 	ld	(bc),a
   0924 01rD4r01           1335 	ld	bc,#_level01Map + 260
   0927 AF                 1336 	xor	a, a
   0928 02                 1337 	ld	(bc),a
   0929 01rD5r01           1338 	ld	bc,#_level01Map + 261
   092C AF                 1339 	xor	a, a
   092D 02                 1340 	ld	(bc),a
   092E 01rD6r01           1341 	ld	bc,#_level01Map + 262
   0931 AF                 1342 	xor	a, a
   0932 02                 1343 	ld	(bc),a
   0933 01rD7r01           1344 	ld	bc,#_level01Map + 263
   0936 AF                 1345 	xor	a, a
   0937 02                 1346 	ld	(bc),a
   0938 01rD8r01           1347 	ld	bc,#_level01Map + 264
   093B AF                 1348 	xor	a, a
   093C 02                 1349 	ld	(bc),a
   093D 01rD9r01           1350 	ld	bc,#_level01Map + 265
   0940 AF                 1351 	xor	a, a
   0941 02                 1352 	ld	(bc),a
   0942 01rDAr01           1353 	ld	bc,#_level01Map + 266
   0945 AF                 1354 	xor	a, a
   0946 02                 1355 	ld	(bc),a
   0947 01rDBr01           1356 	ld	bc,#_level01Map + 267
   094A AF                 1357 	xor	a, a
   094B 02                 1358 	ld	(bc),a
   094C 01rDCr01           1359 	ld	bc,#_level01Map + 268
   094F AF                 1360 	xor	a, a
   0950 02                 1361 	ld	(bc),a
   0951 01rDDr01           1362 	ld	bc,#_level01Map + 269
   0954 AF                 1363 	xor	a, a
   0955 02                 1364 	ld	(bc),a
   0956 01rDEr01           1365 	ld	bc,#_level01Map + 270
   0959 AF                 1366 	xor	a, a
   095A 02                 1367 	ld	(bc),a
   095B 01rDFr01           1368 	ld	bc,#_level01Map + 271
   095E AF                 1369 	xor	a, a
   095F 02                 1370 	ld	(bc),a
   0960 01rE0r01           1371 	ld	bc,#_level01Map + 272
   0963 AF                 1372 	xor	a, a
   0964 02                 1373 	ld	(bc),a
   0965 01rE1r01           1374 	ld	bc,#_level01Map + 273
   0968 AF                 1375 	xor	a, a
   0969 02                 1376 	ld	(bc),a
   096A 01rE2r01           1377 	ld	bc,#_level01Map + 274
   096D AF                 1378 	xor	a, a
   096E 02                 1379 	ld	(bc),a
   096F 01rE3r01           1380 	ld	bc,#_level01Map + 275
   0972 AF                 1381 	xor	a, a
   0973 02                 1382 	ld	(bc),a
   0974 01rE4r01           1383 	ld	bc,#_level01Map + 276
   0977 AF                 1384 	xor	a, a
   0978 02                 1385 	ld	(bc),a
   0979 01rE5r01           1386 	ld	bc,#_level01Map + 277
   097C AF                 1387 	xor	a, a
   097D 02                 1388 	ld	(bc),a
   097E 01rE6r01           1389 	ld	bc,#_level01Map + 278
   0981 AF                 1390 	xor	a, a
   0982 02                 1391 	ld	(bc),a
   0983 01rE7r01           1392 	ld	bc,#_level01Map + 279
   0986 AF                 1393 	xor	a, a
   0987 02                 1394 	ld	(bc),a
   0988 01rE8r01           1395 	ld	bc,#_level01Map + 280
   098B AF                 1396 	xor	a, a
   098C 02                 1397 	ld	(bc),a
   098D 01rE9r01           1398 	ld	bc,#_level01Map + 281
   0990 AF                 1399 	xor	a, a
   0991 02                 1400 	ld	(bc),a
   0992 01rEAr01           1401 	ld	bc,#_level01Map + 282
   0995 AF                 1402 	xor	a, a
   0996 02                 1403 	ld	(bc),a
   0997 01rEBr01           1404 	ld	bc,#_level01Map + 283
   099A AF                 1405 	xor	a, a
   099B 02                 1406 	ld	(bc),a
   099C 01rECr01           1407 	ld	bc,#_level01Map + 284
   099F AF                 1408 	xor	a, a
   09A0 02                 1409 	ld	(bc),a
   09A1 01rEDr01           1410 	ld	bc,#_level01Map + 285
   09A4 AF                 1411 	xor	a, a
   09A5 02                 1412 	ld	(bc),a
   09A6 01rEEr01           1413 	ld	bc,#_level01Map + 286
   09A9 AF                 1414 	xor	a, a
   09AA 02                 1415 	ld	(bc),a
   09AB 01rEFr01           1416 	ld	bc,#_level01Map + 287
   09AE AF                 1417 	xor	a, a
   09AF 02                 1418 	ld	(bc),a
   09B0 01rF0r01           1419 	ld	bc,#_level01Map + 288
   09B3 AF                 1420 	xor	a, a
   09B4 02                 1421 	ld	(bc),a
   09B5 01rF1r01           1422 	ld	bc,#_level01Map + 289
   09B8 AF                 1423 	xor	a, a
   09B9 02                 1424 	ld	(bc),a
   09BA 01rF2r01           1425 	ld	bc,#_level01Map + 290
   09BD AF                 1426 	xor	a, a
   09BE 02                 1427 	ld	(bc),a
   09BF 01rF3r01           1428 	ld	bc,#_level01Map + 291
   09C2 AF                 1429 	xor	a, a
   09C3 02                 1430 	ld	(bc),a
   09C4 21rF4r01           1431 	ld	hl,#(_level01Map + 0x0124)
   09C7 36 28              1432 	ld	(hl),#0x28
   09C9 21rF5r01           1433 	ld	hl,#(_level01Map + 0x0125)
   09CC 36 29              1434 	ld	(hl),#0x29
   09CE 01rF6r01           1435 	ld	bc,#_level01Map + 294
   09D1 AF                 1436 	xor	a, a
   09D2 02                 1437 	ld	(bc),a
   09D3 01rF7r01           1438 	ld	bc,#_level01Map + 295
   09D6 AF                 1439 	xor	a, a
   09D7 02                 1440 	ld	(bc),a
   09D8 01rF8r01           1441 	ld	bc,#_level01Map + 296
   09DB AF                 1442 	xor	a, a
   09DC 02                 1443 	ld	(bc),a
   09DD 01rF9r01           1444 	ld	bc,#_level01Map + 297
   09E0 AF                 1445 	xor	a, a
   09E1 02                 1446 	ld	(bc),a
   09E2 01rFAr01           1447 	ld	bc,#_level01Map + 298
   09E5 AF                 1448 	xor	a, a
   09E6 02                 1449 	ld	(bc),a
   09E7 01rFBr01           1450 	ld	bc,#_level01Map + 299
   09EA AF                 1451 	xor	a, a
   09EB 02                 1452 	ld	(bc),a
   09EC 01rFCr01           1453 	ld	bc,#_level01Map + 300
   09EF AF                 1454 	xor	a, a
   09F0 02                 1455 	ld	(bc),a
   09F1 01rFDr01           1456 	ld	bc,#_level01Map + 301
   09F4 AF                 1457 	xor	a, a
   09F5 02                 1458 	ld	(bc),a
   09F6 01rFEr01           1459 	ld	bc,#_level01Map + 302
   09F9 AF                 1460 	xor	a, a
   09FA 02                 1461 	ld	(bc),a
   09FB 01rFFr01           1462 	ld	bc,#_level01Map + 303
   09FE AF                 1463 	xor	a, a
   09FF 02                 1464 	ld	(bc),a
   0A00 01r00r02           1465 	ld	bc,#_level01Map + 304
   0A03 AF                 1466 	xor	a, a
   0A04 02                 1467 	ld	(bc),a
   0A05 01r01r02           1468 	ld	bc,#_level01Map + 305
   0A08 AF                 1469 	xor	a, a
   0A09 02                 1470 	ld	(bc),a
   0A0A 01r02r02           1471 	ld	bc,#_level01Map + 306
   0A0D AF                 1472 	xor	a, a
   0A0E 02                 1473 	ld	(bc),a
   0A0F 01r03r02           1474 	ld	bc,#_level01Map + 307
   0A12 AF                 1475 	xor	a, a
   0A13 02                 1476 	ld	(bc),a
   0A14 01r04r02           1477 	ld	bc,#_level01Map + 308
   0A17 AF                 1478 	xor	a, a
   0A18 02                 1479 	ld	(bc),a
   0A19 01r05r02           1480 	ld	bc,#_level01Map + 309
   0A1C AF                 1481 	xor	a, a
   0A1D 02                 1482 	ld	(bc),a
   0A1E 01r06r02           1483 	ld	bc,#_level01Map + 310
   0A21 AF                 1484 	xor	a, a
   0A22 02                 1485 	ld	(bc),a
   0A23 01r07r02           1486 	ld	bc,#_level01Map + 311
   0A26 AF                 1487 	xor	a, a
   0A27 02                 1488 	ld	(bc),a
   0A28 01r08r02           1489 	ld	bc,#_level01Map + 312
   0A2B AF                 1490 	xor	a, a
   0A2C 02                 1491 	ld	(bc),a
   0A2D 01r09r02           1492 	ld	bc,#_level01Map + 313
   0A30 AF                 1493 	xor	a, a
   0A31 02                 1494 	ld	(bc),a
   0A32 01r0Ar02           1495 	ld	bc,#_level01Map + 314
   0A35 AF                 1496 	xor	a, a
   0A36 02                 1497 	ld	(bc),a
   0A37 01r0Br02           1498 	ld	bc,#_level01Map + 315
   0A3A AF                 1499 	xor	a, a
   0A3B 02                 1500 	ld	(bc),a
   0A3C 01r0Cr02           1501 	ld	bc,#_level01Map + 316
   0A3F AF                 1502 	xor	a, a
   0A40 02                 1503 	ld	(bc),a
   0A41 01r0Dr02           1504 	ld	bc,#_level01Map + 317
   0A44 AF                 1505 	xor	a, a
   0A45 02                 1506 	ld	(bc),a
   0A46 01r0Er02           1507 	ld	bc,#_level01Map + 318
   0A49 AF                 1508 	xor	a, a
   0A4A 02                 1509 	ld	(bc),a
   0A4B 01r0Fr02           1510 	ld	bc,#_level01Map + 319
   0A4E AF                 1511 	xor	a, a
   0A4F 02                 1512 	ld	(bc),a
   0A50 01r10r02           1513 	ld	bc,#_level01Map + 320
   0A53 AF                 1514 	xor	a, a
   0A54 02                 1515 	ld	(bc),a
   0A55 01r11r02           1516 	ld	bc,#_level01Map + 321
   0A58 AF                 1517 	xor	a, a
   0A59 02                 1518 	ld	(bc),a
   0A5A 01r12r02           1519 	ld	bc,#_level01Map + 322
   0A5D AF                 1520 	xor	a, a
   0A5E 02                 1521 	ld	(bc),a
   0A5F 01r13r02           1522 	ld	bc,#_level01Map + 323
   0A62 AF                 1523 	xor	a, a
   0A63 02                 1524 	ld	(bc),a
   0A64 01r14r02           1525 	ld	bc,#_level01Map + 324
   0A67 AF                 1526 	xor	a, a
   0A68 02                 1527 	ld	(bc),a
   0A69 01r15r02           1528 	ld	bc,#_level01Map + 325
   0A6C AF                 1529 	xor	a, a
   0A6D 02                 1530 	ld	(bc),a
   0A6E 01r16r02           1531 	ld	bc,#_level01Map + 326
   0A71 AF                 1532 	xor	a, a
   0A72 02                 1533 	ld	(bc),a
   0A73 21r17r02           1534 	ld	hl,#(_level01Map + 0x0147)
   0A76 36 28              1535 	ld	(hl),#0x28
   0A78 21r18r02           1536 	ld	hl,#(_level01Map + 0x0148)
   0A7B 36 29              1537 	ld	(hl),#0x29
   0A7D 01r19r02           1538 	ld	bc,#_level01Map + 329
   0A80 AF                 1539 	xor	a, a
   0A81 02                 1540 	ld	(bc),a
   0A82 01r1Ar02           1541 	ld	bc,#_level01Map + 330
   0A85 AF                 1542 	xor	a, a
   0A86 02                 1543 	ld	(bc),a
   0A87 01r1Br02           1544 	ld	bc,#_level01Map + 331
   0A8A AF                 1545 	xor	a, a
   0A8B 02                 1546 	ld	(bc),a
   0A8C 21r1Cr02           1547 	ld	hl,#(_level01Map + 0x014c)
   0A8F 36 2A              1548 	ld	(hl),#0x2A
   0A91 21r1Dr02           1549 	ld	hl,#(_level01Map + 0x014d)
   0A94 36 2E              1550 	ld	(hl),#0x2E
   0A96 01r1Er02           1551 	ld	bc,#_level01Map + 334
   0A99 AF                 1552 	xor	a, a
   0A9A 02                 1553 	ld	(bc),a
   0A9B 01r1Fr02           1554 	ld	bc,#_level01Map + 335
   0A9E AF                 1555 	xor	a, a
   0A9F 02                 1556 	ld	(bc),a
   0AA0 01r20r02           1557 	ld	bc,#_level01Map + 336
   0AA3 AF                 1558 	xor	a, a
   0AA4 02                 1559 	ld	(bc),a
   0AA5 01r21r02           1560 	ld	bc,#_level01Map + 337
   0AA8 AF                 1561 	xor	a, a
   0AA9 02                 1562 	ld	(bc),a
   0AAA 01r22r02           1563 	ld	bc,#_level01Map + 338
   0AAD AF                 1564 	xor	a, a
   0AAE 02                 1565 	ld	(bc),a
   0AAF 01r23r02           1566 	ld	bc,#_level01Map + 339
   0AB2 AF                 1567 	xor	a, a
   0AB3 02                 1568 	ld	(bc),a
   0AB4 01r24r02           1569 	ld	bc,#_level01Map + 340
   0AB7 AF                 1570 	xor	a, a
   0AB8 02                 1571 	ld	(bc),a
   0AB9 01r25r02           1572 	ld	bc,#_level01Map + 341
   0ABC AF                 1573 	xor	a, a
   0ABD 02                 1574 	ld	(bc),a
   0ABE 01r26r02           1575 	ld	bc,#_level01Map + 342
   0AC1 AF                 1576 	xor	a, a
   0AC2 02                 1577 	ld	(bc),a
   0AC3 01r27r02           1578 	ld	bc,#_level01Map + 343
   0AC6 AF                 1579 	xor	a, a
   0AC7 02                 1580 	ld	(bc),a
   0AC8 01r28r02           1581 	ld	bc,#_level01Map + 344
   0ACB AF                 1582 	xor	a, a
   0ACC 02                 1583 	ld	(bc),a
   0ACD 01r29r02           1584 	ld	bc,#_level01Map + 345
   0AD0 AF                 1585 	xor	a, a
   0AD1 02                 1586 	ld	(bc),a
   0AD2 01r2Ar02           1587 	ld	bc,#_level01Map + 346
   0AD5 AF                 1588 	xor	a, a
   0AD6 02                 1589 	ld	(bc),a
   0AD7 01r2Br02           1590 	ld	bc,#_level01Map + 347
   0ADA AF                 1591 	xor	a, a
   0ADB 02                 1592 	ld	(bc),a
   0ADC 21r2Cr02           1593 	ld	hl,#(_level01Map + 0x015c)
   0ADF 36 28              1594 	ld	(hl),#0x28
   0AE1 21r2Dr02           1595 	ld	hl,#(_level01Map + 0x015d)
   0AE4 36 29              1596 	ld	(hl),#0x29
   0AE6 01r2Er02           1597 	ld	bc,#_level01Map + 350
   0AE9 AF                 1598 	xor	a, a
   0AEA 02                 1599 	ld	(bc),a
   0AEB 01r2Fr02           1600 	ld	bc,#_level01Map + 351
   0AEE AF                 1601 	xor	a, a
   0AEF 02                 1602 	ld	(bc),a
   0AF0 01r30r02           1603 	ld	bc,#_level01Map + 352
   0AF3 AF                 1604 	xor	a, a
   0AF4 02                 1605 	ld	(bc),a
   0AF5 01r31r02           1606 	ld	bc,#_level01Map + 353
   0AF8 AF                 1607 	xor	a, a
   0AF9 02                 1608 	ld	(bc),a
   0AFA 01r32r02           1609 	ld	bc,#_level01Map + 354
   0AFD AF                 1610 	xor	a, a
   0AFE 02                 1611 	ld	(bc),a
   0AFF 01r33r02           1612 	ld	bc,#_level01Map + 355
   0B02 AF                 1613 	xor	a, a
   0B03 02                 1614 	ld	(bc),a
   0B04 01r34r02           1615 	ld	bc,#_level01Map + 356
   0B07 AF                 1616 	xor	a, a
   0B08 02                 1617 	ld	(bc),a
   0B09 01r35r02           1618 	ld	bc,#_level01Map + 357
   0B0C AF                 1619 	xor	a, a
   0B0D 02                 1620 	ld	(bc),a
   0B0E 01r36r02           1621 	ld	bc,#_level01Map + 358
   0B11 AF                 1622 	xor	a, a
   0B12 02                 1623 	ld	(bc),a
   0B13 01r37r02           1624 	ld	bc,#_level01Map + 359
   0B16 AF                 1625 	xor	a, a
   0B17 02                 1626 	ld	(bc),a
   0B18 01r38r02           1627 	ld	bc,#_level01Map + 360
   0B1B AF                 1628 	xor	a, a
   0B1C 02                 1629 	ld	(bc),a
   0B1D 01r39r02           1630 	ld	bc,#_level01Map + 361
   0B20 AF                 1631 	xor	a, a
   0B21 02                 1632 	ld	(bc),a
   0B22 01r3Ar02           1633 	ld	bc,#_level01Map + 362
   0B25 AF                 1634 	xor	a, a
   0B26 02                 1635 	ld	(bc),a
   0B27 01r3Br02           1636 	ld	bc,#_level01Map + 363
   0B2A AF                 1637 	xor	a, a
   0B2B 02                 1638 	ld	(bc),a
   0B2C 01r3Cr02           1639 	ld	bc,#_level01Map + 364
   0B2F AF                 1640 	xor	a, a
   0B30 02                 1641 	ld	(bc),a
   0B31 01r3Dr02           1642 	ld	bc,#_level01Map + 365
   0B34 AF                 1643 	xor	a, a
   0B35 02                 1644 	ld	(bc),a
   0B36 01r3Er02           1645 	ld	bc,#_level01Map + 366
   0B39 AF                 1646 	xor	a, a
   0B3A 02                 1647 	ld	(bc),a
   0B3B 21r3Fr02           1648 	ld	hl,#(_level01Map + 0x016f)
   0B3E 36 2A              1649 	ld	(hl),#0x2A
   0B40 21r40r02           1650 	ld	hl,#(_level01Map + 0x0170)
   0B43 36 2E              1651 	ld	(hl),#0x2E
   0B45 01r41r02           1652 	ld	bc,#_level01Map + 369
   0B48 AF                 1653 	xor	a, a
   0B49 02                 1654 	ld	(bc),a
   0B4A 01r42r02           1655 	ld	bc,#_level01Map + 370
   0B4D AF                 1656 	xor	a, a
   0B4E 02                 1657 	ld	(bc),a
   0B4F 01r43r02           1658 	ld	bc,#_level01Map + 371
   0B52 AF                 1659 	xor	a, a
   0B53 02                 1660 	ld	(bc),a
   0B54 21r44r02           1661 	ld	hl,#(_level01Map + 0x0174)
   0B57 36 2A              1662 	ld	(hl),#0x2A
   0B59 21r45r02           1663 	ld	hl,#(_level01Map + 0x0175)
   0B5C 36 2E              1664 	ld	(hl),#0x2E
   0B5E 01r46r02           1665 	ld	bc,#_level01Map + 374
   0B61 AF                 1666 	xor	a, a
   0B62 02                 1667 	ld	(bc),a
   0B63 01r47r02           1668 	ld	bc,#_level01Map + 375
   0B66 AF                 1669 	xor	a, a
   0B67 02                 1670 	ld	(bc),a
   0B68 01r48r02           1671 	ld	bc,#_level01Map + 376
   0B6B AF                 1672 	xor	a, a
   0B6C 02                 1673 	ld	(bc),a
   0B6D 01r49r02           1674 	ld	bc,#_level01Map + 377
   0B70 AF                 1675 	xor	a, a
   0B71 02                 1676 	ld	(bc),a
   0B72 01r4Ar02           1677 	ld	bc,#_level01Map + 378
   0B75 AF                 1678 	xor	a, a
   0B76 02                 1679 	ld	(bc),a
   0B77 01r4Br02           1680 	ld	bc,#_level01Map + 379
   0B7A AF                 1681 	xor	a, a
   0B7B 02                 1682 	ld	(bc),a
   0B7C 01r4Cr02           1683 	ld	bc,#_level01Map + 380
   0B7F AF                 1684 	xor	a, a
   0B80 02                 1685 	ld	(bc),a
   0B81 01r4Dr02           1686 	ld	bc,#_level01Map + 381
   0B84 AF                 1687 	xor	a, a
   0B85 02                 1688 	ld	(bc),a
   0B86 01r4Er02           1689 	ld	bc,#_level01Map + 382
   0B89 AF                 1690 	xor	a, a
   0B8A 02                 1691 	ld	(bc),a
   0B8B 01r4Fr02           1692 	ld	bc,#_level01Map + 383
   0B8E AF                 1693 	xor	a, a
   0B8F 02                 1694 	ld	(bc),a
   0B90 01r50r02           1695 	ld	bc,#_level01Map + 384
   0B93 AF                 1696 	xor	a, a
   0B94 02                 1697 	ld	(bc),a
   0B95 01r51r02           1698 	ld	bc,#_level01Map + 385
   0B98 AF                 1699 	xor	a, a
   0B99 02                 1700 	ld	(bc),a
   0B9A 01r52r02           1701 	ld	bc,#_level01Map + 386
   0B9D AF                 1702 	xor	a, a
   0B9E 02                 1703 	ld	(bc),a
   0B9F 01r53r02           1704 	ld	bc,#_level01Map + 387
   0BA2 AF                 1705 	xor	a, a
   0BA3 02                 1706 	ld	(bc),a
   0BA4 21r54r02           1707 	ld	hl,#(_level01Map + 0x0184)
   0BA7 36 2A              1708 	ld	(hl),#0x2A
   0BA9 21r55r02           1709 	ld	hl,#(_level01Map + 0x0185)
   0BAC 36 32              1710 	ld	(hl),#0x32
   0BAE 21r56r02           1711 	ld	hl,#(_level01Map + 0x0186)
   0BB1 36 29              1712 	ld	(hl),#0x29
   0BB3 01r57r02           1713 	ld	bc,#_level01Map + 391
   0BB6 AF                 1714 	xor	a, a
   0BB7 02                 1715 	ld	(bc),a
   0BB8 01r58r02           1716 	ld	bc,#_level01Map + 392
   0BBB AF                 1717 	xor	a, a
   0BBC 02                 1718 	ld	(bc),a
   0BBD 01r59r02           1719 	ld	bc,#_level01Map + 393
   0BC0 AF                 1720 	xor	a, a
   0BC1 02                 1721 	ld	(bc),a
   0BC2 01r5Ar02           1722 	ld	bc,#_level01Map + 394
   0BC5 AF                 1723 	xor	a, a
   0BC6 02                 1724 	ld	(bc),a
   0BC7 01r5Br02           1725 	ld	bc,#_level01Map + 395
   0BCA AF                 1726 	xor	a, a
   0BCB 02                 1727 	ld	(bc),a
   0BCC 01r5Cr02           1728 	ld	bc,#_level01Map + 396
   0BCF AF                 1729 	xor	a, a
   0BD0 02                 1730 	ld	(bc),a
   0BD1 01r5Dr02           1731 	ld	bc,#_level01Map + 397
   0BD4 AF                 1732 	xor	a, a
   0BD5 02                 1733 	ld	(bc),a
   0BD6 01r5Er02           1734 	ld	bc,#_level01Map + 398
   0BD9 AF                 1735 	xor	a, a
   0BDA 02                 1736 	ld	(bc),a
   0BDB 01r5Fr02           1737 	ld	bc,#_level01Map + 399
   0BDE AF                 1738 	xor	a, a
   0BDF 02                 1739 	ld	(bc),a
   0BE0 01r60r02           1740 	ld	bc,#_level01Map + 400
   0BE3 AF                 1741 	xor	a, a
   0BE4 02                 1742 	ld	(bc),a
   0BE5 01r61r02           1743 	ld	bc,#_level01Map + 401
   0BE8 AF                 1744 	xor	a, a
   0BE9 02                 1745 	ld	(bc),a
   0BEA 01r62r02           1746 	ld	bc,#_level01Map + 402
   0BED AF                 1747 	xor	a, a
   0BEE 02                 1748 	ld	(bc),a
   0BEF 01r63r02           1749 	ld	bc,#_level01Map + 403
   0BF2 AF                 1750 	xor	a, a
   0BF3 02                 1751 	ld	(bc),a
   0BF4 01r64r02           1752 	ld	bc,#_level01Map + 404
   0BF7 AF                 1753 	xor	a, a
   0BF8 02                 1754 	ld	(bc),a
   0BF9 01r65r02           1755 	ld	bc,#_level01Map + 405
   0BFC AF                 1756 	xor	a, a
   0BFD 02                 1757 	ld	(bc),a
   0BFE 01r66r02           1758 	ld	bc,#_level01Map + 406
   0C01 AF                 1759 	xor	a, a
   0C02 02                 1760 	ld	(bc),a
   0C03 21r67r02           1761 	ld	hl,#(_level01Map + 0x0197)
   0C06 36 2A              1762 	ld	(hl),#0x2A
   0C08 21r68r02           1763 	ld	hl,#(_level01Map + 0x0198)
   0C0B 36 2E              1764 	ld	(hl),#0x2E
   0C0D 01r69r02           1765 	ld	bc,#_level01Map + 409
   0C10 AF                 1766 	xor	a, a
   0C11 02                 1767 	ld	(bc),a
   0C12 01r6Ar02           1768 	ld	bc,#_level01Map + 410
   0C15 AF                 1769 	xor	a, a
   0C16 02                 1770 	ld	(bc),a
   0C17 01r6Br02           1771 	ld	bc,#_level01Map + 411
   0C1A AF                 1772 	xor	a, a
   0C1B 02                 1773 	ld	(bc),a
   0C1C 21r6Cr02           1774 	ld	hl,#(_level01Map + 0x019c)
   0C1F 36 2A              1775 	ld	(hl),#0x2A
   0C21 21r6Dr02           1776 	ld	hl,#(_level01Map + 0x019d)
   0C24 36 2E              1777 	ld	(hl),#0x2E
   0C26 01r6Er02           1778 	ld	bc,#_level01Map + 414
   0C29 AF                 1779 	xor	a, a
   0C2A 02                 1780 	ld	(bc),a
   0C2B 01r6Fr02           1781 	ld	bc,#_level01Map + 415
   0C2E AF                 1782 	xor	a, a
   0C2F 02                 1783 	ld	(bc),a
   0C30 21r70r02           1784 	ld	hl,#(_level01Map + 0x01a0)
   0C33 36 28              1785 	ld	(hl),#0x28
   0C35 21r71r02           1786 	ld	hl,#(_level01Map + 0x01a1)
   0C38 36 27              1787 	ld	(hl),#0x27
   0C3A 21r72r02           1788 	ld	hl,#(_level01Map + 0x01a2)
   0C3D 36 29              1789 	ld	(hl),#0x29
   0C3F 01r73r02           1790 	ld	bc,#_level01Map + 419
   0C42 AF                 1791 	xor	a, a
   0C43 02                 1792 	ld	(bc),a
   0C44 01r74r02           1793 	ld	bc,#_level01Map + 420
   0C47 AF                 1794 	xor	a, a
   0C48 02                 1795 	ld	(bc),a
   0C49 21r75r02           1796 	ld	hl,#(_level01Map + 0x01a5)
   0C4C 36 28              1797 	ld	(hl),#0x28
   0C4E 21r76r02           1798 	ld	hl,#(_level01Map + 0x01a6)
   0C51 36 29              1799 	ld	(hl),#0x29
   0C53 01r77r02           1800 	ld	bc,#_level01Map + 423
   0C56 AF                 1801 	xor	a, a
   0C57 02                 1802 	ld	(bc),a
   0C58 01r78r02           1803 	ld	bc,#_level01Map + 424
   0C5B AF                 1804 	xor	a, a
   0C5C 02                 1805 	ld	(bc),a
   0C5D 01r79r02           1806 	ld	bc,#_level01Map + 425
   0C60 AF                 1807 	xor	a, a
   0C61 02                 1808 	ld	(bc),a
   0C62 01r7Ar02           1809 	ld	bc,#_level01Map + 426
   0C65 AF                 1810 	xor	a, a
   0C66 02                 1811 	ld	(bc),a
   0C67 01r7Br02           1812 	ld	bc,#_level01Map + 427
   0C6A AF                 1813 	xor	a, a
   0C6B 02                 1814 	ld	(bc),a
   0C6C 21r7Cr02           1815 	ld	hl,#(_level01Map + 0x01ac)
   0C6F 36 2A              1816 	ld	(hl),#0x2A
   0C71 21r7Dr02           1817 	ld	hl,#(_level01Map + 0x01ad)
   0C74 36 32              1818 	ld	(hl),#0x32
   0C76 21r7Er02           1819 	ld	hl,#(_level01Map + 0x01ae)
   0C79 36 2E              1820 	ld	(hl),#0x2E
   0C7B 01r7Fr02           1821 	ld	bc,#_level01Map + 431
   0C7E AF                 1822 	xor	a, a
   0C7F 02                 1823 	ld	(bc),a
   0C80 01r80r02           1824 	ld	bc,#_level01Map + 432
   0C83 AF                 1825 	xor	a, a
   0C84 02                 1826 	ld	(bc),a
   0C85 01r81r02           1827 	ld	bc,#_level01Map + 433
   0C88 AF                 1828 	xor	a, a
   0C89 02                 1829 	ld	(bc),a
   0C8A 01r82r02           1830 	ld	bc,#_level01Map + 434
   0C8D AF                 1831 	xor	a, a
   0C8E 02                 1832 	ld	(bc),a
   0C8F 01r83r02           1833 	ld	bc,#_level01Map + 435
   0C92 AF                 1834 	xor	a, a
   0C93 02                 1835 	ld	(bc),a
   0C94 01r84r02           1836 	ld	bc,#_level01Map + 436
   0C97 AF                 1837 	xor	a, a
   0C98 02                 1838 	ld	(bc),a
   0C99 01r85r02           1839 	ld	bc,#_level01Map + 437
   0C9C AF                 1840 	xor	a, a
   0C9D 02                 1841 	ld	(bc),a
   0C9E 01r86r02           1842 	ld	bc,#_level01Map + 438
   0CA1 AF                 1843 	xor	a, a
   0CA2 02                 1844 	ld	(bc),a
   0CA3 01r87r02           1845 	ld	bc,#_level01Map + 439
   0CA6 AF                 1846 	xor	a, a
   0CA7 02                 1847 	ld	(bc),a
   0CA8 01r88r02           1848 	ld	bc,#_level01Map + 440
   0CAB AF                 1849 	xor	a, a
   0CAC 02                 1850 	ld	(bc),a
   0CAD 01r89r02           1851 	ld	bc,#_level01Map + 441
   0CB0 AF                 1852 	xor	a, a
   0CB1 02                 1853 	ld	(bc),a
   0CB2 01r8Ar02           1854 	ld	bc,#_level01Map + 442
   0CB5 AF                 1855 	xor	a, a
   0CB6 02                 1856 	ld	(bc),a
   0CB7 01r8Br02           1857 	ld	bc,#_level01Map + 443
   0CBA AF                 1858 	xor	a, a
   0CBB 02                 1859 	ld	(bc),a
   0CBC 01r8Cr02           1860 	ld	bc,#_level01Map + 444
   0CBF AF                 1861 	xor	a, a
   0CC0 02                 1862 	ld	(bc),a
   0CC1 01r8Dr02           1863 	ld	bc,#_level01Map + 445
   0CC4 AF                 1864 	xor	a, a
   0CC5 02                 1865 	ld	(bc),a
   0CC6 01r8Er02           1866 	ld	bc,#_level01Map + 446
   0CC9 AF                 1867 	xor	a, a
   0CCA 02                 1868 	ld	(bc),a
   0CCB 21r8Fr02           1869 	ld	hl,#(_level01Map + 0x01bf)
   0CCE 36 2A              1870 	ld	(hl),#0x2A
   0CD0 21r90r02           1871 	ld	hl,#(_level01Map + 0x01c0)
   0CD3 36 2E              1872 	ld	(hl),#0x2E
   0CD5 01r91r02           1873 	ld	bc,#_level01Map + 449
   0CD8 AF                 1874 	xor	a, a
   0CD9 02                 1875 	ld	(bc),a
   0CDA 01r92r02           1876 	ld	bc,#_level01Map + 450
   0CDD AF                 1877 	xor	a, a
   0CDE 02                 1878 	ld	(bc),a
   0CDF 01r93r02           1879 	ld	bc,#_level01Map + 451
   0CE2 AF                 1880 	xor	a, a
   0CE3 02                 1881 	ld	(bc),a
   0CE4 21r94r02           1882 	ld	hl,#(_level01Map + 0x01c4)
   0CE7 36 2A              1883 	ld	(hl),#0x2A
   0CE9 21r95r02           1884 	ld	hl,#(_level01Map + 0x01c5)
   0CEC 36 2E              1885 	ld	(hl),#0x2E
   0CEE 01r96r02           1886 	ld	bc,#_level01Map + 454
   0CF1 AF                 1887 	xor	a, a
   0CF2 02                 1888 	ld	(bc),a
   0CF3 01r97r02           1889 	ld	bc,#_level01Map + 455
   0CF6 AF                 1890 	xor	a, a
   0CF7 02                 1891 	ld	(bc),a
   0CF8 21r98r02           1892 	ld	hl,#(_level01Map + 0x01c8)
   0CFB 36 2A              1893 	ld	(hl),#0x2A
   0CFD 21r99r02           1894 	ld	hl,#(_level01Map + 0x01c9)
   0D00 36 32              1895 	ld	(hl),#0x32
   0D02 21r9Ar02           1896 	ld	hl,#(_level01Map + 0x01ca)
   0D05 36 2E              1897 	ld	(hl),#0x2E
   0D07 01r9Br02           1898 	ld	bc,#_level01Map + 459
   0D0A AF                 1899 	xor	a, a
   0D0B 02                 1900 	ld	(bc),a
   0D0C 01r9Cr02           1901 	ld	bc,#_level01Map + 460
   0D0F AF                 1902 	xor	a, a
   0D10 02                 1903 	ld	(bc),a
   0D11 21r9Dr02           1904 	ld	hl,#(_level01Map + 0x01cd)
   0D14 36 2A              1905 	ld	(hl),#0x2A
   0D16 21r9Er02           1906 	ld	hl,#(_level01Map + 0x01ce)
   0D19 36 2E              1907 	ld	(hl),#0x2E
   0D1B 01r9Fr02           1908 	ld	bc,#_level01Map + 463
   0D1E AF                 1909 	xor	a, a
   0D1F 02                 1910 	ld	(bc),a
   0D20 01rA0r02           1911 	ld	bc,#_level01Map + 464
   0D23 AF                 1912 	xor	a, a
   0D24 02                 1913 	ld	(bc),a
   0D25 01rA1r02           1914 	ld	bc,#_level01Map + 465
   0D28 AF                 1915 	xor	a, a
   0D29 02                 1916 	ld	(bc),a
   0D2A 01rA2r02           1917 	ld	bc,#_level01Map + 466
   0D2D AF                 1918 	xor	a, a
   0D2E 02                 1919 	ld	(bc),a
   0D2F 01rA3r02           1920 	ld	bc,#_level01Map + 467
   0D32 AF                 1921 	xor	a, a
   0D33 02                 1922 	ld	(bc),a
   0D34 21rA4r02           1923 	ld	hl,#(_level01Map + 0x01d4)
   0D37 36 2A              1924 	ld	(hl),#0x2A
   0D39 21rA5r02           1925 	ld	hl,#(_level01Map + 0x01d5)
   0D3C 36 32              1926 	ld	(hl),#0x32
   0D3E 21rA6r02           1927 	ld	hl,#(_level01Map + 0x01d6)
   0D41 36 2E              1928 	ld	(hl),#0x2E
   0D43 01rA7r02           1929 	ld	bc,#_level01Map + 471
   0D46 AF                 1930 	xor	a, a
   0D47 02                 1931 	ld	(bc),a
   0D48 01rA8r02           1932 	ld	bc,#_level01Map + 472
   0D4B AF                 1933 	xor	a, a
   0D4C 02                 1934 	ld	(bc),a
   0D4D 01rA9r02           1935 	ld	bc,#_level01Map + 473
   0D50 AF                 1936 	xor	a, a
   0D51 02                 1937 	ld	(bc),a
   0D52 01rAAr02           1938 	ld	bc,#_level01Map + 474
   0D55 AF                 1939 	xor	a, a
   0D56 02                 1940 	ld	(bc),a
   0D57 01rABr02           1941 	ld	bc,#_level01Map + 475
   0D5A AF                 1942 	xor	a, a
   0D5B 02                 1943 	ld	(bc),a
   0D5C 01rACr02           1944 	ld	bc,#_level01Map + 476
   0D5F AF                 1945 	xor	a, a
   0D60 02                 1946 	ld	(bc),a
   0D61 01rADr02           1947 	ld	bc,#_level01Map + 477
   0D64 AF                 1948 	xor	a, a
   0D65 02                 1949 	ld	(bc),a
   0D66 01rAEr02           1950 	ld	bc,#_level01Map + 478
   0D69 AF                 1951 	xor	a, a
   0D6A 02                 1952 	ld	(bc),a
   0D6B 01rAFr02           1953 	ld	bc,#_level01Map + 479
   0D6E AF                 1954 	xor	a, a
   0D6F 02                 1955 	ld	(bc),a
   0D70 01rB0r02           1956 	ld	bc,#_level01Map + 480
   0D73 AF                 1957 	xor	a, a
   0D74 02                 1958 	ld	(bc),a
   0D75 01rB1r02           1959 	ld	bc,#_level01Map + 481
   0D78 AF                 1960 	xor	a, a
   0D79 02                 1961 	ld	(bc),a
   0D7A 01rB2r02           1962 	ld	bc,#_level01Map + 482
   0D7D AF                 1963 	xor	a, a
   0D7E 02                 1964 	ld	(bc),a
   0D7F 01rB3r02           1965 	ld	bc,#_level01Map + 483
   0D82 AF                 1966 	xor	a, a
   0D83 02                 1967 	ld	(bc),a
   0D84 01rB4r02           1968 	ld	bc,#_level01Map + 484
   0D87 AF                 1969 	xor	a, a
   0D88 02                 1970 	ld	(bc),a
   0D89 01rB5r02           1971 	ld	bc,#_level01Map + 485
   0D8C AF                 1972 	xor	a, a
   0D8D 02                 1973 	ld	(bc),a
   0D8E 01rB6r02           1974 	ld	bc,#_level01Map + 486
   0D91 AF                 1975 	xor	a, a
   0D92 02                 1976 	ld	(bc),a
   0D93 21rB7r02           1977 	ld	hl,#(_level01Map + 0x01e7)
   0D96 36 2A              1978 	ld	(hl),#0x2A
   0D98 21rB8r02           1979 	ld	hl,#(_level01Map + 0x01e8)
   0D9B 36 2F              1980 	ld	(hl),#0x2F
   0D9D 21rB9r02           1981 	ld	hl,#(_level01Map + 0x01e9)
   0DA0 36 30              1982 	ld	(hl),#0x30
   0DA2 01rBAr02           1983 	ld	bc,#_level01Map + 490
   0DA5 AF                 1984 	xor	a, a
   0DA6 02                 1985 	ld	(bc),a
   0DA7 21rBBr02           1986 	ld	hl,#(_level01Map + 0x01eb)
   0DAA 36 2C              1987 	ld	(hl),#0x2C
   0DAC 21rBCr02           1988 	ld	hl,#(_level01Map + 0x01ec)
   0DAF 36 2B              1989 	ld	(hl),#0x2B
   0DB1 21rBDr02           1990 	ld	hl,#(_level01Map + 0x01ed)
   0DB4 36 2F              1991 	ld	(hl),#0x2F
   0DB6 21rBEr02           1992 	ld	hl,#(_level01Map + 0x01ee)
   0DB9 36 30              1993 	ld	(hl),#0x30
   0DBB 21rBFr02           1994 	ld	hl,#(_level01Map + 0x01ef)
   0DBE 36 2C              1995 	ld	(hl),#0x2C
   0DC0 21rC0r02           1996 	ld	hl,#(_level01Map + 0x01f0)
   0DC3 36 2B              1997 	ld	(hl),#0x2B
   0DC5 21rC1r02           1998 	ld	hl,#(_level01Map + 0x01f1)
   0DC8 36 32              1999 	ld	(hl),#0x32
   0DCA 21rC2r02           2000 	ld	hl,#(_level01Map + 0x01f2)
   0DCD 36 2F              2001 	ld	(hl),#0x2F
   0DCF 21rC3r02           2002 	ld	hl,#(_level01Map + 0x01f3)
   0DD2 36 30              2003 	ld	(hl),#0x30
   0DD4 21rC4r02           2004 	ld	hl,#(_level01Map + 0x01f4)
   0DD7 36 2C              2005 	ld	(hl),#0x2C
   0DD9 21rC5r02           2006 	ld	hl,#(_level01Map + 0x01f5)
   0DDC 36 2B              2007 	ld	(hl),#0x2B
   0DDE 21rC6r02           2008 	ld	hl,#(_level01Map + 0x01f6)
   0DE1 36 2E              2009 	ld	(hl),#0x2E
   0DE3 01rC7r02           2010 	ld	bc,#_level01Map + 503
   0DE6 AF                 2011 	xor	a, a
   0DE7 02                 2012 	ld	(bc),a
   0DE8 01rC8r02           2013 	ld	bc,#_level01Map + 504
   0DEB AF                 2014 	xor	a, a
   0DEC 02                 2015 	ld	(bc),a
   0DED 01rC9r02           2016 	ld	bc,#_level01Map + 505
   0DF0 AF                 2017 	xor	a, a
   0DF1 02                 2018 	ld	(bc),a
   0DF2 01rCAr02           2019 	ld	bc,#_level01Map + 506
   0DF5 AF                 2020 	xor	a, a
   0DF6 02                 2021 	ld	(bc),a
   0DF7 01rCBr02           2022 	ld	bc,#_level01Map + 507
   0DFA AF                 2023 	xor	a, a
   0DFB 02                 2024 	ld	(bc),a
   0DFC 21rCCr02           2025 	ld	hl,#(_level01Map + 0x01fc)
   0DFF 36 2A              2026 	ld	(hl),#0x2A
   0E01 21rCDr02           2027 	ld	hl,#(_level01Map + 0x01fd)
   0E04 36 32              2028 	ld	(hl),#0x32
   0E06 21rCEr02           2029 	ld	hl,#(_level01Map + 0x01fe)
   0E09 36 2E              2030 	ld	(hl),#0x2E
   0E0B 01rCFr02           2031 	ld	bc,#_level01Map + 511
   0E0E AF                 2032 	xor	a, a
   0E0F 02                 2033 	ld	(bc),a
   0E10 01rD0r02           2034 	ld	bc,#_level01Map + 512
   0E13 AF                 2035 	xor	a, a
   0E14 02                 2036 	ld	(bc),a
   0E15 01rD1r02           2037 	ld	bc,#_level01Map + 513
   0E18 AF                 2038 	xor	a, a
   0E19 02                 2039 	ld	(bc),a
   0E1A 01rD2r02           2040 	ld	bc,#_level01Map + 514
   0E1D AF                 2041 	xor	a, a
   0E1E 02                 2042 	ld	(bc),a
   0E1F 01rD3r02           2043 	ld	bc,#_level01Map + 515
   0E22 AF                 2044 	xor	a, a
   0E23 02                 2045 	ld	(bc),a
   0E24 01rD4r02           2046 	ld	bc,#_level01Map + 516
   0E27 AF                 2047 	xor	a, a
   0E28 02                 2048 	ld	(bc),a
   0E29 01rD5r02           2049 	ld	bc,#_level01Map + 517
   0E2C AF                 2050 	xor	a, a
   0E2D 02                 2051 	ld	(bc),a
   0E2E 01rD6r02           2052 	ld	bc,#_level01Map + 518
   0E31 AF                 2053 	xor	a, a
   0E32 02                 2054 	ld	(bc),a
   0E33 01rD7r02           2055 	ld	bc,#_level01Map + 519
   0E36 AF                 2056 	xor	a, a
   0E37 02                 2057 	ld	(bc),a
   0E38 01rD8r02           2058 	ld	bc,#_level01Map + 520
   0E3B AF                 2059 	xor	a, a
   0E3C 02                 2060 	ld	(bc),a
   0E3D 01rD9r02           2061 	ld	bc,#_level01Map + 521
   0E40 AF                 2062 	xor	a, a
   0E41 02                 2063 	ld	(bc),a
   0E42 01rDAr02           2064 	ld	bc,#_level01Map + 522
   0E45 AF                 2065 	xor	a, a
   0E46 02                 2066 	ld	(bc),a
   0E47 01rDBr02           2067 	ld	bc,#_level01Map + 523
   0E4A AF                 2068 	xor	a, a
   0E4B 02                 2069 	ld	(bc),a
   0E4C 01rDCr02           2070 	ld	bc,#_level01Map + 524
   0E4F AF                 2071 	xor	a, a
   0E50 02                 2072 	ld	(bc),a
   0E51 01rDDr02           2073 	ld	bc,#_level01Map + 525
   0E54 AF                 2074 	xor	a, a
   0E55 02                 2075 	ld	(bc),a
   0E56 21rDEr02           2076 	ld	hl,#(_level01Map + 0x020e)
   0E59 36 2C              2077 	ld	(hl),#0x2C
   0E5B 21rDFr02           2078 	ld	hl,#(_level01Map + 0x020f)
   0E5E 36 2B              2079 	ld	(hl),#0x2B
   0E60 21rE0r02           2080 	ld	hl,#(_level01Map + 0x0210)
   0E63 36 32              2081 	ld	(hl),#0x32
   0E65 21rE1r02           2082 	ld	hl,#(_level01Map + 0x0211)
   0E68 36 31              2083 	ld	(hl),#0x31
   0E6A 21rE2r02           2084 	ld	hl,#(_level01Map + 0x0212)
   0E6D 36 27              2085 	ld	(hl),#0x27
   0E6F 21rE3r02           2086 	ld	hl,#(_level01Map + 0x0213)
   0E72 36 2D              2087 	ld	(hl),#0x2D
   0E74 21rE4r02           2088 	ld	hl,#(_level01Map + 0x0214)
   0E77 36 32              2089 	ld	(hl),#0x32
   0E79 21rE5r02           2090 	ld	hl,#(_level01Map + 0x0215)
   0E7C 36 32              2091 	ld	(hl),#0x32
   0E7E 21rE6r02           2092 	ld	hl,#(_level01Map + 0x0216)
   0E81 36 31              2093 	ld	(hl),#0x31
   0E83 21rE7r02           2094 	ld	hl,#(_level01Map + 0x0217)
   0E86 36 2D              2095 	ld	(hl),#0x2D
   0E88 21rE8r02           2096 	ld	hl,#(_level01Map + 0x0218)
   0E8B 36 32              2097 	ld	(hl),#0x32
   0E8D 21rE9r02           2098 	ld	hl,#(_level01Map + 0x0219)
   0E90 36 32              2099 	ld	(hl),#0x32
   0E92 21rEAr02           2100 	ld	hl,#(_level01Map + 0x021a)
   0E95 36 32              2101 	ld	(hl),#0x32
   0E97 21rEBr02           2102 	ld	hl,#(_level01Map + 0x021b)
   0E9A 36 31              2103 	ld	(hl),#0x31
   0E9C 21rECr02           2104 	ld	hl,#(_level01Map + 0x021c)
   0E9F 36 2D              2105 	ld	(hl),#0x2D
   0EA1 21rEDr02           2106 	ld	hl,#(_level01Map + 0x021d)
   0EA4 36 32              2107 	ld	(hl),#0x32
   0EA6 21rEEr02           2108 	ld	hl,#(_level01Map + 0x021e)
   0EA9 36 2F              2109 	ld	(hl),#0x2F
   0EAB 21rEFr02           2110 	ld	hl,#(_level01Map + 0x021f)
   0EAE 36 30              2111 	ld	(hl),#0x30
   0EB0 01rF0r02           2112 	ld	bc,#_level01Map + 544
   0EB3 AF                 2113 	xor	a, a
   0EB4 02                 2114 	ld	(bc),a
   0EB5 01rF1r02           2115 	ld	bc,#_level01Map + 545
   0EB8 AF                 2116 	xor	a, a
   0EB9 02                 2117 	ld	(bc),a
   0EBA 01rF2r02           2118 	ld	bc,#_level01Map + 546
   0EBD AF                 2119 	xor	a, a
   0EBE 02                 2120 	ld	(bc),a
   0EBF 21rF3r02           2121 	ld	hl,#(_level01Map + 0x0223)
   0EC2 36 2C              2122 	ld	(hl),#0x2C
   0EC4 21rF4r02           2123 	ld	hl,#(_level01Map + 0x0224)
   0EC7 36 2B              2124 	ld	(hl),#0x2B
   0EC9 21rF5r02           2125 	ld	hl,#(_level01Map + 0x0225)
   0ECC 36 32              2126 	ld	(hl),#0x32
   0ECE 21rF6r02           2127 	ld	hl,#(_level01Map + 0x0226)
   0ED1 36 2F              2128 	ld	(hl),#0x2F
   0ED3 21rF7r02           2129 	ld	hl,#(_level01Map + 0x0227)
   0ED6 36 30              2130 	ld	(hl),#0x30
   0ED8 01rF8r02           2131 	ld	bc,#_level01Map + 552
   0EDB AF                 2132 	xor	a, a
   0EDC 02                 2133 	ld	(bc),a
   0EDD 01rF9r02           2134 	ld	bc,#_level01Map + 553
   0EE0 AF                 2135 	xor	a, a
   0EE1 02                 2136 	ld	(bc),a
   0EE2 01rFAr02           2137 	ld	bc,#_level01Map + 554
   0EE5 AF                 2138 	xor	a, a
   0EE6 02                 2139 	ld	(bc),a
   0EE7 01rFBr02           2140 	ld	bc,#_level01Map + 555
   0EEA AF                 2141 	xor	a, a
   0EEB 02                 2142 	ld	(bc),a
   0EEC 01rFCr02           2143 	ld	bc,#_level01Map + 556
   0EEF AF                 2144 	xor	a, a
   0EF0 02                 2145 	ld	(bc),a
   0EF1 01rFDr02           2146 	ld	bc,#_level01Map + 557
   0EF4 AF                 2147 	xor	a, a
   0EF5 02                 2148 	ld	(bc),a
   0EF6 01rFEr02           2149 	ld	bc,#_level01Map + 558
   0EF9 AF                 2150 	xor	a, a
   0EFA 02                 2151 	ld	(bc),a
   0EFB 01rFFr02           2152 	ld	bc,#_level01Map + 559
   0EFE AF                 2153 	xor	a, a
   0EFF 02                 2154 	ld	(bc),a
   0F00 21r00r03           2155 	ld	hl,#(_level01Map + 0x0230)
   0F03 36 27              2156 	ld	(hl),#0x27
   0F05 21r01r03           2157 	ld	hl,#(_level01Map + 0x0231)
   0F08 36 27              2158 	ld	(hl),#0x27
   0F0A 21r02r03           2159 	ld	hl,#(_level01Map + 0x0232)
   0F0D 36 27              2160 	ld	(hl),#0x27
   0F0F 21r03r03           2161 	ld	hl,#(_level01Map + 0x0233)
   0F12 36 27              2162 	ld	(hl),#0x27
   0F14 21r04r03           2163 	ld	hl,#(_level01Map + 0x0234)
   0F17 36 27              2164 	ld	(hl),#0x27
   0F19 21r05r03           2165 	ld	hl,#(_level01Map + 0x0235)
   0F1C 36 27              2166 	ld	(hl),#0x27
   0F1E 21r06r03           2167 	ld	hl,#(_level01Map + 0x0236)
   0F21 36 2D              2168 	ld	(hl),#0x2D
   0F23 21r07r03           2169 	ld	hl,#(_level01Map + 0x0237)
   0F26 36 32              2170 	ld	(hl),#0x32
   0F28 21r08r03           2171 	ld	hl,#(_level01Map + 0x0238)
   0F2B 36 32              2172 	ld	(hl),#0x32
   0F2D 21r09r03           2173 	ld	hl,#(_level01Map + 0x0239)
   0F30 36 32              2174 	ld	(hl),#0x32
   0F32 21r0Ar03           2175 	ld	hl,#(_level01Map + 0x023a)
   0F35 36 32              2176 	ld	(hl),#0x32
   0F37 21r0Br03           2177 	ld	hl,#(_level01Map + 0x023b)
   0F3A 36 32              2178 	ld	(hl),#0x32
   0F3C 21r0Cr03           2179 	ld	hl,#(_level01Map + 0x023c)
   0F3F 36 32              2180 	ld	(hl),#0x32
   0F41 21r0Dr03           2181 	ld	hl,#(_level01Map + 0x023d)
   0F44 36 32              2182 	ld	(hl),#0x32
   0F46 21r0Er03           2183 	ld	hl,#(_level01Map + 0x023e)
   0F49 36 32              2184 	ld	(hl),#0x32
   0F4B 21r0Fr03           2185 	ld	hl,#(_level01Map + 0x023f)
   0F4E 36 32              2186 	ld	(hl),#0x32
   0F50 21r10r03           2187 	ld	hl,#(_level01Map + 0x0240)
   0F53 36 32              2188 	ld	(hl),#0x32
   0F55 21r11r03           2189 	ld	hl,#(_level01Map + 0x0241)
   0F58 36 32              2190 	ld	(hl),#0x32
   0F5A 21r12r03           2191 	ld	hl,#(_level01Map + 0x0242)
   0F5D 36 32              2192 	ld	(hl),#0x32
   0F5F 21r13r03           2193 	ld	hl,#(_level01Map + 0x0243)
   0F62 36 32              2194 	ld	(hl),#0x32
   0F64 21r14r03           2195 	ld	hl,#(_level01Map + 0x0244)
   0F67 36 32              2196 	ld	(hl),#0x32
   0F69 21r15r03           2197 	ld	hl,#(_level01Map + 0x0245)
   0F6C 36 32              2198 	ld	(hl),#0x32
   0F6E 21r16r03           2199 	ld	hl,#(_level01Map + 0x0246)
   0F71 36 32              2200 	ld	(hl),#0x32
   0F73 21r17r03           2201 	ld	hl,#(_level01Map + 0x0247)
   0F76 36 31              2202 	ld	(hl),#0x31
   0F78 21r18r03           2203 	ld	hl,#(_level01Map + 0x0248)
   0F7B 36 27              2204 	ld	(hl),#0x27
   0F7D 21r19r03           2205 	ld	hl,#(_level01Map + 0x0249)
   0F80 36 27              2206 	ld	(hl),#0x27
   0F82 21r1Ar03           2207 	ld	hl,#(_level01Map + 0x024a)
   0F85 36 27              2208 	ld	(hl),#0x27
   0F87 21r1Br03           2209 	ld	hl,#(_level01Map + 0x024b)
   0F8A 36 2D              2210 	ld	(hl),#0x2D
   0F8C 21r1Cr03           2211 	ld	hl,#(_level01Map + 0x024c)
   0F8F 36 32              2212 	ld	(hl),#0x32
   0F91 21r1Dr03           2213 	ld	hl,#(_level01Map + 0x024d)
   0F94 36 32              2214 	ld	(hl),#0x32
   0F96 21r1Er03           2215 	ld	hl,#(_level01Map + 0x024e)
   0F99 36 32              2216 	ld	(hl),#0x32
   0F9B 21r1Fr03           2217 	ld	hl,#(_level01Map + 0x024f)
   0F9E 36 31              2218 	ld	(hl),#0x31
   0FA0 21r20r03           2219 	ld	hl,#(_level01Map + 0x0250)
   0FA3 36 27              2220 	ld	(hl),#0x27
   0FA5 21r21r03           2221 	ld	hl,#(_level01Map + 0x0251)
   0FA8 36 27              2222 	ld	(hl),#0x27
   0FAA 21r22r03           2223 	ld	hl,#(_level01Map + 0x0252)
   0FAD 36 27              2224 	ld	(hl),#0x27
   0FAF 21r23r03           2225 	ld	hl,#(_level01Map + 0x0253)
   0FB2 36 27              2226 	ld	(hl),#0x27
   0FB4 21r24r03           2227 	ld	hl,#(_level01Map + 0x0254)
   0FB7 36 27              2228 	ld	(hl),#0x27
   0FB9 21r25r03           2229 	ld	hl,#(_level01Map + 0x0255)
   0FBC 36 27              2230 	ld	(hl),#0x27
   0FBE 21r26r03           2231 	ld	hl,#(_level01Map + 0x0256)
   0FC1 36 27              2232 	ld	(hl),#0x27
   0FC3 21r27r03           2233 	ld	hl,#(_level01Map + 0x0257)
   0FC6 36 27              2234 	ld	(hl),#0x27
   0FC8 21r28r03           2235 	ld	hl,#(_level01Map + 0x0258)
   0FCB 36 32              2236 	ld	(hl),#0x32
   0FCD 21r29r03           2237 	ld	hl,#(_level01Map + 0x0259)
   0FD0 36 32              2238 	ld	(hl),#0x32
   0FD2 21r2Ar03           2239 	ld	hl,#(_level01Map + 0x025a)
   0FD5 36 32              2240 	ld	(hl),#0x32
   0FD7 21r2Br03           2241 	ld	hl,#(_level01Map + 0x025b)
   0FDA 36 32              2242 	ld	(hl),#0x32
   0FDC 21r2Cr03           2243 	ld	hl,#(_level01Map + 0x025c)
   0FDF 36 32              2244 	ld	(hl),#0x32
   0FE1 21r2Dr03           2245 	ld	hl,#(_level01Map + 0x025d)
   0FE4 36 32              2246 	ld	(hl),#0x32
   0FE6 21r2Er03           2247 	ld	hl,#(_level01Map + 0x025e)
   0FE9 36 32              2248 	ld	(hl),#0x32
   0FEB 21r2Fr03           2249 	ld	hl,#(_level01Map + 0x025f)
   0FEE 36 32              2250 	ld	(hl),#0x32
   0FF0 21r30r03           2251 	ld	hl,#(_level01Map + 0x0260)
   0FF3 36 32              2252 	ld	(hl),#0x32
   0FF5 21r31r03           2253 	ld	hl,#(_level01Map + 0x0261)
   0FF8 36 32              2254 	ld	(hl),#0x32
   0FFA 21r32r03           2255 	ld	hl,#(_level01Map + 0x0262)
   0FFD 36 32              2256 	ld	(hl),#0x32
   0FFF 21r33r03           2257 	ld	hl,#(_level01Map + 0x0263)
   1002 36 32              2258 	ld	(hl),#0x32
   1004 21r34r03           2259 	ld	hl,#(_level01Map + 0x0264)
   1007 36 32              2260 	ld	(hl),#0x32
   1009 21r35r03           2261 	ld	hl,#(_level01Map + 0x0265)
   100C 36 32              2262 	ld	(hl),#0x32
   100E 21r36r03           2263 	ld	hl,#(_level01Map + 0x0266)
   1011 36 32              2264 	ld	(hl),#0x32
   1013 21r37r03           2265 	ld	hl,#(_level01Map + 0x0267)
   1016 36 32              2266 	ld	(hl),#0x32
   1018 21r38r03           2267 	ld	hl,#(_level01Map + 0x0268)
   101B 36 32              2268 	ld	(hl),#0x32
   101D 21r39r03           2269 	ld	hl,#(_level01Map + 0x0269)
   1020 36 32              2270 	ld	(hl),#0x32
   1022 21r3Ar03           2271 	ld	hl,#(_level01Map + 0x026a)
   1025 36 32              2272 	ld	(hl),#0x32
   1027 21r3Br03           2273 	ld	hl,#(_level01Map + 0x026b)
   102A 36 32              2274 	ld	(hl),#0x32
   102C 21r3Cr03           2275 	ld	hl,#(_level01Map + 0x026c)
   102F 36 32              2276 	ld	(hl),#0x32
   1031 21r3Dr03           2277 	ld	hl,#(_level01Map + 0x026d)
   1034 36 32              2278 	ld	(hl),#0x32
   1036 21r3Er03           2279 	ld	hl,#(_level01Map + 0x026e)
   1039 36 32              2280 	ld	(hl),#0x32
   103B 21r3Fr03           2281 	ld	hl,#(_level01Map + 0x026f)
   103E 36 32              2282 	ld	(hl),#0x32
   1040 21r40r03           2283 	ld	hl,#(_level01Map + 0x0270)
   1043 36 32              2284 	ld	(hl),#0x32
   1045 21r41r03           2285 	ld	hl,#(_level01Map + 0x0271)
   1048 36 32              2286 	ld	(hl),#0x32
   104A 21r42r03           2287 	ld	hl,#(_level01Map + 0x0272)
   104D 36 32              2288 	ld	(hl),#0x32
   104F 21r43r03           2289 	ld	hl,#(_level01Map + 0x0273)
   1052 36 32              2290 	ld	(hl),#0x32
   1054 21r44r03           2291 	ld	hl,#(_level01Map + 0x0274)
   1057 36 32              2292 	ld	(hl),#0x32
   1059 21r45r03           2293 	ld	hl,#(_level01Map + 0x0275)
   105C 36 32              2294 	ld	(hl),#0x32
   105E 21r46r03           2295 	ld	hl,#(_level01Map + 0x0276)
   1061 36 32              2296 	ld	(hl),#0x32
   1063 21r47r03           2297 	ld	hl,#(_level01Map + 0x0277)
   1066 36 32              2298 	ld	(hl),#0x32
   1068 21r48r03           2299 	ld	hl,#(_level01Map + 0x0278)
   106B 36 32              2300 	ld	(hl),#0x32
   106D 21r49r03           2301 	ld	hl,#(_level01Map + 0x0279)
   1070 36 32              2302 	ld	(hl),#0x32
   1072 21r4Ar03           2303 	ld	hl,#(_level01Map + 0x027a)
   1075 36 32              2304 	ld	(hl),#0x32
   1077 21r4Br03           2305 	ld	hl,#(_level01Map + 0x027b)
   107A 36 32              2306 	ld	(hl),#0x32
   107C 21r4Cr03           2307 	ld	hl,#(_level01Map + 0x027c)
   107F 36 32              2308 	ld	(hl),#0x32
   1081 21r4Dr03           2309 	ld	hl,#(_level01Map + 0x027d)
   1084 36 32              2310 	ld	(hl),#0x32
   1086 21r4Er03           2311 	ld	hl,#(_level01Map + 0x027e)
   1089 36 32              2312 	ld	(hl),#0x32
   108B 21r4Fr03           2313 	ld	hl,#(_level01Map + 0x027f)
   108E 36 32              2314 	ld	(hl),#0x32
   1090 21r50r03           2315 	ld	hl,#(_level01Map + 0x0280)
   1093 36 32              2316 	ld	(hl),#0x32
   1095 21r51r03           2317 	ld	hl,#(_level01Map + 0x0281)
   1098 36 32              2318 	ld	(hl),#0x32
   109A 21r52r03           2319 	ld	hl,#(_level01Map + 0x0282)
   109D 36 32              2320 	ld	(hl),#0x32
   109F 21r53r03           2321 	ld	hl,#(_level01Map + 0x0283)
   10A2 36 32              2322 	ld	(hl),#0x32
   10A4 21r54r03           2323 	ld	hl,#(_level01Map + 0x0284)
   10A7 36 32              2324 	ld	(hl),#0x32
   10A9 21r55r03           2325 	ld	hl,#(_level01Map + 0x0285)
   10AC 36 32              2326 	ld	(hl),#0x32
   10AE 21r56r03           2327 	ld	hl,#(_level01Map + 0x0286)
   10B1 36 32              2328 	ld	(hl),#0x32
   10B3 21r57r03           2329 	ld	hl,#(_level01Map + 0x0287)
   10B6 36 32              2330 	ld	(hl),#0x32
   10B8 21r58r03           2331 	ld	hl,#(_level01Map + 0x0288)
   10BB 36 32              2332 	ld	(hl),#0x32
   10BD 21r59r03           2333 	ld	hl,#(_level01Map + 0x0289)
   10C0 36 32              2334 	ld	(hl),#0x32
   10C2 21r5Ar03           2335 	ld	hl,#(_level01Map + 0x028a)
   10C5 36 32              2336 	ld	(hl),#0x32
   10C7 21r5Br03           2337 	ld	hl,#(_level01Map + 0x028b)
   10CA 36 32              2338 	ld	(hl),#0x32
   10CC 21r5Cr03           2339 	ld	hl,#(_level01Map + 0x028c)
   10CF 36 32              2340 	ld	(hl),#0x32
   10D1 21r5Dr03           2341 	ld	hl,#(_level01Map + 0x028d)
   10D4 36 32              2342 	ld	(hl),#0x32
   10D6 21r5Er03           2343 	ld	hl,#(_level01Map + 0x028e)
   10D9 36 32              2344 	ld	(hl),#0x32
   10DB 21r5Fr03           2345 	ld	hl,#(_level01Map + 0x028f)
   10DE 36 32              2346 	ld	(hl),#0x32
   10E0 21r60r03           2347 	ld	hl,#(_level01Map + 0x0290)
   10E3 36 32              2348 	ld	(hl),#0x32
   10E5 21r61r03           2349 	ld	hl,#(_level01Map + 0x0291)
   10E8 36 32              2350 	ld	(hl),#0x32
   10EA 21r62r03           2351 	ld	hl,#(_level01Map + 0x0292)
   10ED 36 32              2352 	ld	(hl),#0x32
   10EF 21r63r03           2353 	ld	hl,#(_level01Map + 0x0293)
   10F2 36 32              2354 	ld	(hl),#0x32
   10F4 21r64r03           2355 	ld	hl,#(_level01Map + 0x0294)
   10F7 36 32              2356 	ld	(hl),#0x32
   10F9 21r65r03           2357 	ld	hl,#(_level01Map + 0x0295)
   10FC 36 32              2358 	ld	(hl),#0x32
   10FE 21r66r03           2359 	ld	hl,#(_level01Map + 0x0296)
   1101 36 32              2360 	ld	(hl),#0x32
   1103 21r67r03           2361 	ld	hl,#(_level01Map + 0x0297)
   1106 36 32              2362 	ld	(hl),#0x32
   1108 21r68r03           2363 	ld	hl,#(_level01Map + 0x0298)
   110B 36 32              2364 	ld	(hl),#0x32
   110D 21r69r03           2365 	ld	hl,#(_level01Map + 0x0299)
   1110 36 32              2366 	ld	(hl),#0x32
   1112 21r6Ar03           2367 	ld	hl,#(_level01Map + 0x029a)
   1115 36 32              2368 	ld	(hl),#0x32
   1117 21r6Br03           2369 	ld	hl,#(_level01Map + 0x029b)
   111A 36 32              2370 	ld	(hl),#0x32
   111C 21r6Cr03           2371 	ld	hl,#(_level01Map + 0x029c)
   111F 36 32              2372 	ld	(hl),#0x32
   1121 21r6Dr03           2373 	ld	hl,#(_level01Map + 0x029d)
   1124 36 32              2374 	ld	(hl),#0x32
   1126 21r6Er03           2375 	ld	hl,#(_level01Map + 0x029e)
   1129 36 32              2376 	ld	(hl),#0x32
   112B 21r6Fr03           2377 	ld	hl,#(_level01Map + 0x029f)
   112E 36 32              2378 	ld	(hl),#0x32
   1130 21r70r03           2379 	ld	hl,#(_level01Map + 0x02a0)
   1133 36 32              2380 	ld	(hl),#0x32
   1135 21r71r03           2381 	ld	hl,#(_level01Map + 0x02a1)
   1138 36 32              2382 	ld	(hl),#0x32
   113A 21r72r03           2383 	ld	hl,#(_level01Map + 0x02a2)
   113D 36 32              2384 	ld	(hl),#0x32
   113F 21r73r03           2385 	ld	hl,#(_level01Map + 0x02a3)
   1142 36 32              2386 	ld	(hl),#0x32
   1144 21r74r03           2387 	ld	hl,#(_level01Map + 0x02a4)
   1147 36 32              2388 	ld	(hl),#0x32
   1149 21r75r03           2389 	ld	hl,#(_level01Map + 0x02a5)
   114C 36 32              2390 	ld	(hl),#0x32
   114E 21r76r03           2391 	ld	hl,#(_level01Map + 0x02a6)
   1151 36 32              2392 	ld	(hl),#0x32
   1153 21r77r03           2393 	ld	hl,#(_level01Map + 0x02a7)
   1156 36 32              2394 	ld	(hl),#0x32
   1158 21r78r03           2395 	ld	hl,#(_level01Map + 0x02a8)
   115B 36 32              2396 	ld	(hl),#0x32
   115D 21r79r03           2397 	ld	hl,#(_level01Map + 0x02a9)
   1160 36 32              2398 	ld	(hl),#0x32
   1162 21r7Ar03           2399 	ld	hl,#(_level01Map + 0x02aa)
   1165 36 32              2400 	ld	(hl),#0x32
   1167 21r7Br03           2401 	ld	hl,#(_level01Map + 0x02ab)
   116A 36 32              2402 	ld	(hl),#0x32
   116C 21r7Cr03           2403 	ld	hl,#(_level01Map + 0x02ac)
   116F 36 32              2404 	ld	(hl),#0x32
   1171 21r7Dr03           2405 	ld	hl,#(_level01Map + 0x02ad)
   1174 36 32              2406 	ld	(hl),#0x32
   1176 21r7Er03           2407 	ld	hl,#(_level01Map + 0x02ae)
   1179 36 32              2408 	ld	(hl),#0x32
   117B 21r7Fr03           2409 	ld	hl,#(_level01Map + 0x02af)
   117E 36 32              2410 	ld	(hl),#0x32
   1180 21r80r03           2411 	ld	hl,#(_level01Map + 0x02b0)
   1183 36 32              2412 	ld	(hl),#0x32
   1185 21r81r03           2413 	ld	hl,#(_level01Map + 0x02b1)
   1188 36 32              2414 	ld	(hl),#0x32
   118A 21r82r03           2415 	ld	hl,#(_level01Map + 0x02b2)
   118D 36 32              2416 	ld	(hl),#0x32
   118F 21r83r03           2417 	ld	hl,#(_level01Map + 0x02b3)
   1192 36 32              2418 	ld	(hl),#0x32
   1194 21r84r03           2419 	ld	hl,#(_level01Map + 0x02b4)
   1197 36 32              2420 	ld	(hl),#0x32
   1199 21r85r03           2421 	ld	hl,#(_level01Map + 0x02b5)
   119C 36 32              2422 	ld	(hl),#0x32
   119E 21r86r03           2423 	ld	hl,#(_level01Map + 0x02b6)
   11A1 36 32              2424 	ld	(hl),#0x32
   11A3 21r87r03           2425 	ld	hl,#(_level01Map + 0x02b7)
   11A6 36 32              2426 	ld	(hl),#0x32
   11A8 21r88r03           2427 	ld	hl,#(_level01Map + 0x02b8)
   11AB 36 32              2428 	ld	(hl),#0x32
   11AD 21r89r03           2429 	ld	hl,#(_level01Map + 0x02b9)
   11B0 36 32              2430 	ld	(hl),#0x32
   11B2 21r8Ar03           2431 	ld	hl,#(_level01Map + 0x02ba)
   11B5 36 32              2432 	ld	(hl),#0x32
   11B7 21r8Br03           2433 	ld	hl,#(_level01Map + 0x02bb)
   11BA 36 32              2434 	ld	(hl),#0x32
   11BC 21r8Cr03           2435 	ld	hl,#(_level01Map + 0x02bc)
   11BF 36 32              2436 	ld	(hl),#0x32
   11C1 21r8Dr03           2437 	ld	hl,#(_level01Map + 0x02bd)
   11C4 36 32              2438 	ld	(hl),#0x32
   11C6 21r8Er03           2439 	ld	hl,#(_level01Map + 0x02be)
   11C9 36 32              2440 	ld	(hl),#0x32
   11CB 21r8Fr03           2441 	ld	hl,#(_level01Map + 0x02bf)
   11CE 36 32              2442 	ld	(hl),#0x32
   11D0 21r90r03           2443 	ld	hl,#(_level01Map + 0x02c0)
   11D3 36 32              2444 	ld	(hl),#0x32
   11D5 21r91r03           2445 	ld	hl,#(_level01Map + 0x02c1)
   11D8 36 32              2446 	ld	(hl),#0x32
   11DA 21r92r03           2447 	ld	hl,#(_level01Map + 0x02c2)
   11DD 36 32              2448 	ld	(hl),#0x32
   11DF 21r93r03           2449 	ld	hl,#(_level01Map + 0x02c3)
   11E2 36 32              2450 	ld	(hl),#0x32
   11E4 21r94r03           2451 	ld	hl,#(_level01Map + 0x02c4)
   11E7 36 32              2452 	ld	(hl),#0x32
   11E9 21r95r03           2453 	ld	hl,#(_level01Map + 0x02c5)
   11EC 36 32              2454 	ld	(hl),#0x32
   11EE 21r96r03           2455 	ld	hl,#(_level01Map + 0x02c6)
   11F1 36 32              2456 	ld	(hl),#0x32
   11F3 21r97r03           2457 	ld	hl,#(_level01Map + 0x02c7)
   11F6 36 32              2458 	ld	(hl),#0x32
   11F8 21r98r03           2459 	ld	hl,#(_level01Map + 0x02c8)
   11FB 36 32              2460 	ld	(hl),#0x32
   11FD 21r99r03           2461 	ld	hl,#(_level01Map + 0x02c9)
   1200 36 32              2462 	ld	(hl),#0x32
   1202 21r9Ar03           2463 	ld	hl,#(_level01Map + 0x02ca)
   1205 36 32              2464 	ld	(hl),#0x32
   1207 21r9Br03           2465 	ld	hl,#(_level01Map + 0x02cb)
   120A 36 32              2466 	ld	(hl),#0x32
   120C 21r9Cr03           2467 	ld	hl,#(_level01Map + 0x02cc)
   120F 36 32              2468 	ld	(hl),#0x32
   1211 21r9Dr03           2469 	ld	hl,#(_level01Map + 0x02cd)
   1214 36 32              2470 	ld	(hl),#0x32
   1216 21r9Er03           2471 	ld	hl,#(_level01Map + 0x02ce)
   1219 36 32              2472 	ld	(hl),#0x32
   121B 21r9Fr03           2473 	ld	hl,#(_level01Map + 0x02cf)
   121E 36 32              2474 	ld	(hl),#0x32
                           2475 ;main.c:7: unsigned char counterDigit1[] =
   1220 11rA1r03           2476 	ld	de,#_counterDigit1+0
   1223 AF                 2477 	xor	a, a
   1224 12                 2478 	ld	(de),a
                           2479 ;main.c:13: unsigned char numberCount[10] =
   1225 21rA3r03           2480 	ld	hl,#_numberCount
   1228 36 02              2481 	ld	(hl),#0x02
   122A 21rA4r03           2482 	ld	hl,#(_numberCount + 0x0001)
   122D 36 03              2483 	ld	(hl),#0x03
   122F 21rA5r03           2484 	ld	hl,#(_numberCount + 0x0002)
   1232 36 04              2485 	ld	(hl),#0x04
   1234 21rA6r03           2486 	ld	hl,#(_numberCount + 0x0003)
   1237 36 05              2487 	ld	(hl),#0x05
   1239 21rA7r03           2488 	ld	hl,#(_numberCount + 0x0004)
   123C 36 06              2489 	ld	(hl),#0x06
   123E 21rA8r03           2490 	ld	hl,#(_numberCount + 0x0005)
   1241 36 07              2491 	ld	(hl),#0x07
   1243 21rA9r03           2492 	ld	hl,#(_numberCount + 0x0006)
   1246 36 08              2493 	ld	(hl),#0x08
   1248 21rAAr03           2494 	ld	hl,#(_numberCount + 0x0007)
   124B 36 09              2495 	ld	(hl),#0x09
   124D 21rABr03           2496 	ld	hl,#(_numberCount + 0x0008)
   1250 36 0A              2497 	ld	(hl),#0x0A
   1252 21rACr03           2498 	ld	hl,#(_numberCount + 0x0009)
   1255 36 0B              2499 	ld	(hl),#0x0B
                           2500 ;main.c:18: unsigned char window01Map[7] =
   1257 21rADr03           2501 	ld	hl,#_window01Map
   125A 36 17              2502 	ld	(hl),#0x17
   125C 21rAEr03           2503 	ld	hl,#(_window01Map + 0x0001)
   125F 36 14              2504 	ld	(hl),#0x14
   1261 21rAFr03           2505 	ld	hl,#(_window01Map + 0x0002)
   1264 36 11              2506 	ld	(hl),#0x11
   1266 21rB0r03           2507 	ld	hl,#(_window01Map + 0x0003)
   1269 36 10              2508 	ld	(hl),#0x10
   126B 01rB1r03           2509 	ld	bc,#_window01Map + 4
   126E AF                 2510 	xor	a, a
   126F 02                 2511 	ld	(bc),a
   1270 21rB2r03           2512 	ld	hl,#(_window01Map + 0x0005)
   1273 36 02              2513 	ld	(hl),#0x02
   1275 21rB3r03           2514 	ld	hl,#(_window01Map + 0x0006)
   1278 36 02              2515 	ld	(hl),#0x02
                           2516 ;--------------------------------------------------------
                           2517 ; Home
                           2518 ;--------------------------------------------------------
                           2519 	.area _HOME
                           2520 	.area _HOME
                           2521 ;--------------------------------------------------------
                           2522 ; code
                           2523 ;--------------------------------------------------------
                           2524 	.area _CODE
                           2525 ;main.c:23: void counterDigit()
                           2526 ;	---------------------------------
                           2527 ; Function counterDigit
                           2528 ; ---------------------------------
   0000                    2529 _counterDigit::
                           2530 ;main.c:25: for(indexForLoop = 0; indexForLoop < 10; indexForLoop++)
   0000 21rA0r03           2531 	ld	hl,#_indexForLoop
   0003 36 00              2532 	ld	(hl),#0x00
   0005                    2533 00102$:
                           2534 ;main.c:27: counterDigit1[0] = numberCount[indexForLoop];
   0005 3ErA3              2535 	ld	a,#<(_numberCount)
   0007 21rA0r03           2536 	ld	hl,#_indexForLoop
   000A 86                 2537 	add	a, (hl)
   000B 4F                 2538 	ld	c,a
   000C 3Es03              2539 	ld	a,#>(_numberCount)
   000E CE 00              2540 	adc	a, #0x00
   0010 47                 2541 	ld	b,a
   0011 0A                 2542 	ld	a,(bc)
   0012 11rA1r03           2543 	ld	de,#_counterDigit1
   0015 12                 2544 	ld	(de),a
                           2545 ;main.c:25: for(indexForLoop = 0; indexForLoop < 10; indexForLoop++)
   0016 34                 2546 	inc	(hl)
   0017 7E                 2547 	ld	a,(hl)
   0018 D6 0A              2548 	sub	a, #0x0A
   001A 38 E9              2549 	jr	C,00102$
   001C C9                 2550 	ret
                           2551 ;main.c:30: void performantDelay(UINT8 numloops){
                           2552 ;	---------------------------------
                           2553 ; Function performantDelay
                           2554 ; ---------------------------------
   001D                    2555 _performantDelay::
                           2556 ;main.c:32: for(indexForLoop = 0;indexForLoop < numloops;indexForLoop++){
   001D 21rA0r03           2557 	ld	hl,#_indexForLoop
   0020 36 00              2558 	ld	(hl),#0x00
   0022                    2559 00103$:
   0022 21rA0r03           2560 	ld	hl,#_indexForLoop
   0025 7E                 2561 	ld	a,(hl)
   0026 F8 02              2562 	ldhl	sp,#2
   0028 96                 2563 	sub	a, (hl)
   0029 D0                 2564 	ret	NC
                           2565 ;main.c:33: wait_vbl_done();
   002A CDr00r00           2566 	call	_wait_vbl_done
                           2567 ;main.c:32: for(indexForLoop = 0;indexForLoop < numloops;indexForLoop++){
   002D 21rA0r03           2568 	ld	hl,#_indexForLoop
   0030 34                 2569 	inc	(hl)
   0031 18 EF              2570 	jr	00103$
   0033 C9                 2571 	ret
                           2572 ;main.c:37: void fontINIT()
                           2573 ;	---------------------------------
                           2574 ; Function fontINIT
                           2575 ; ---------------------------------
   0034                    2576 _fontINIT::
                           2577 ;main.c:40: font_init();
   0034 CDr00r00           2578 	call	_font_init
                           2579 ;main.c:41: minFont = font_load(font_min);
   0037 11r00r00           2580 	ld	de,#_font_min
   003A D5                 2581 	push	de
   003B CDr00r00           2582 	call	_font_load
   003E E8 02              2583 	add	sp, #2
                           2584 ;main.c:42: font_set(minFont);
   0040 D5                 2585 	push	de
   0041 CDr00r00           2586 	call	_font_set
   0044 E8 02              2587 	add	sp, #2
   0046 C9                 2588 	ret
                           2589 ;main.c:45: void main()
                           2590 ;	---------------------------------
                           2591 ; Function main
                           2592 ; ---------------------------------
   0047                    2593 _main::
                           2594 ;main.c:48: SHOW_BKG;
   0047 11 40 FF           2595 	ld	de,#0xFF40
   004A 1A                 2596 	ld	a,(de)
   004B 5F                 2597 	ld	e,a
   004C 16 00              2598 	ld	d,#0x00
   004E 7B                 2599 	ld	a,e
   004F CB C7              2600 	set	0, a
   0051 47                 2601 	ld	b,a
   0052 21 40 FF           2602 	ld	hl,#0xFF40
   0055 70                 2603 	ld	(hl),b
                           2604 ;main.c:49: SHOW_WIN;
   0056 11 40 FF           2605 	ld	de,#0xFF40
   0059 1A                 2606 	ld	a,(de)
   005A 5F                 2607 	ld	e,a
   005B 16 00              2608 	ld	d,#0x00
   005D 7B                 2609 	ld	a,e
   005E CB EF              2610 	set	5, a
   0060 47                 2611 	ld	b,a
   0061 2E 40              2612 	ld	l, #0x40
   0063 70                 2613 	ld	(hl),b
                           2614 ;main.c:50: DISPLAY_ON;
   0064 11 40 FF           2615 	ld	de,#0xFF40
   0067 1A                 2616 	ld	a,(de)
   0068 5F                 2617 	ld	e,a
   0069 16 00              2618 	ld	d,#0x00
   006B 7B                 2619 	ld	a,e
   006C CB FF              2620 	set	7, a
   006E 47                 2621 	ld	b,a
   006F 2E 40              2622 	ld	l, #0x40
   0071 70                 2623 	ld	(hl),b
                           2624 ;main.c:52: fontINIT();
   0072 CDr34r00           2625 	call	_fontINIT
                           2626 ;main.c:54: set_bkg_data(38, 13, level01Tiles);
   0075 11r00r00           2627 	ld	de,#_level01Tiles
   0078 D5                 2628 	push	de
   0079 21 26 0D           2629 	ld	hl,#0x0D26
   007C E5                 2630 	push	hl
   007D CDr00r00           2631 	call	_set_bkg_data
   0080 E8 04              2632 	add	sp, #4
                           2633 ;main.c:55: set_bkg_tiles(0, 0, 40, 18, level01Map);
   0082 11rD0r00           2634 	ld	de,#_level01Map
   0085 D5                 2635 	push	de
   0086 21 28 12           2636 	ld	hl,#0x1228
   0089 E5                 2637 	push	hl
   008A 21 00 00           2638 	ld	hl,#0x0000
   008D E5                 2639 	push	hl
   008E CDr00r00           2640 	call	_set_bkg_tiles
   0091 E8 06              2641 	add	sp, #6
                           2642 ;main.c:57: set_win_tiles(0, 0, 7, 1, window01Map);
   0093 11rADr03           2643 	ld	de,#_window01Map
   0096 D5                 2644 	push	de
   0097 21 07 01           2645 	ld	hl,#0x0107
   009A E5                 2646 	push	hl
   009B 21 00 00           2647 	ld	hl,#0x0000
   009E E5                 2648 	push	hl
   009F CDr00r00           2649 	call	_set_win_tiles
   00A2 E8 06              2650 	add	sp, #6
                           2651 ;main.c:58: move_win(7, 130);
   00A4 21 07 82           2652 	ld	hl,#0x8207
   00A7 E5                 2653 	push	hl
   00A8 CDr00r00           2654 	call	_move_win
   00AB E8 02              2655 	add	sp, #2
                           2656 ;main.c:61: while(1)
   00AD                    2657 00102$:
                           2658 ;main.c:63: counterDigit();
   00AD CDr00r00           2659 	call	_counterDigit
                           2660 ;main.c:64: window01Map[6] = counterDigit1[0];
   00B0 FArA1r03           2661 	ld	a, (#_counterDigit1 + 0)
   00B3 11rB3r03           2662 	ld	de,#(_window01Map + 0x0006)
   00B6 12                 2663 	ld	(de),a
                           2664 ;main.c:65: scroll_bkg(1, 0);
   00B7 21 01 00           2665 	ld	hl,#0x0001
   00BA E5                 2666 	push	hl
   00BB CDr00r00           2667 	call	_scroll_bkg
   00BE E8 02              2668 	add	sp, #2
                           2669 ;main.c:66: performantDelay(1);
   00C0 3E 01              2670 	ld	a,#0x01
   00C2 F5                 2671 	push	af
   00C3 33                 2672 	inc	sp
   00C4 CDr1Dr00           2673 	call	_performantDelay
   00C7 33                 2674 	inc	sp
   00C8 18 E3              2675 	jr	00102$
   00CA C9                 2676 	ret
                           2677 	.area _CODE
                           2678 	.area _CABS (ABS)
