                              1 ;--------------------------------------------------------
                              2 ; File Created by SDCC : free open source ANSI-C Compiler
                              3 ; Version 3.6.0 #9615 (Linux)
                              4 ;--------------------------------------------------------
                              5 	.module main
                              6 	.optsdcc -mgbz80
                              7 	
                              8 ;--------------------------------------------------------
                              9 ; Public variables in this module
                             10 ;--------------------------------------------------------
                             11 	.globl _main
                             12 	.globl _jumpSound
                             13 	.globl _keyTicked
                             14 	.globl _jump
                             15 	.globl _wouldHitSurf
                             16 	.globl _setupBallSprite01
                             17 	.globl _moveGameCharacter
                             18 	.globl _gameBallAnimSquashed
                             19 	.globl _gameBallStaticRest
                             20 	.globl _gameBallStaticStretched
                             21 	.globl _gameBallAnimRollLoop
                             22 	.globl _performantDelay
                             23 	.globl _move_sprite
                             24 	.globl _set_sprite_tile
                             25 	.globl _set_sprite_data
                             26 	.globl _wait_vbl_done
                             27 	.globl _joypad
                             28 	.globl _ballSprite01
                             29 	.globl _result
                             30 	.globl _jPad
                             31 	.globl _timer
                             32 	.globl _possibleYSurface
                             33 	.globl _floorYPosition
                             34 	.globl _currentSpeedY
                             35 	.globl _gravity
                             36 	.globl _jumping
                             37 	.globl _keyPressed_RIGHT
                             38 	.globl _keyPressed_A
                             39 	.globl _ballSprite
                             40 ;--------------------------------------------------------
                             41 ; ram data
                             42 ;--------------------------------------------------------
                             43 	.area _DATA
   0000                      44 _ballSprite::
   0000                      45 	.ds 240
   00F0                      46 _keyPressed_A::
   00F0                      47 	.ds 1
   00F1                      48 _keyPressed_RIGHT::
   00F1                      49 	.ds 1
   00F2                      50 _jumping::
   00F2                      51 	.ds 1
   00F3                      52 _gravity::
   00F3                      53 	.ds 1
   00F4                      54 _currentSpeedY::
   00F4                      55 	.ds 1
   00F5                      56 _floorYPosition::
   00F5                      57 	.ds 1
   00F6                      58 _possibleYSurface::
   00F6                      59 	.ds 1
   00F7                      60 _timer::
   00F7                      61 	.ds 1
   00F8                      62 _jPad::
   00F8                      63 	.ds 1
   00F9                      64 _result::
   00F9                      65 	.ds 1
   00FA                      66 _ballSprite01::
   00FA                      67 	.ds 8
                             68 ;--------------------------------------------------------
                             69 ; absolute external ram data
                             70 ;--------------------------------------------------------
                             71 	.area _DABS (ABS)
                             72 ;--------------------------------------------------------
                             73 ; global & static initialisations
                             74 ;--------------------------------------------------------
                             75 	.area _HOME
                             76 	.area _GSINIT
                             77 	.area _GSFINAL
                             78 	.area _GSINIT
                             79 ;ballSprite.c:26: unsigned char ballSprite[] =
   0000 21r00r00             80 	ld	hl,#_ballSprite
   0003 36 00                81 	ld	(hl),#0x00
   0005 21r01r00             82 	ld	hl,#(_ballSprite + 0x0001)
   0008 36 00                83 	ld	(hl),#0x00
   000A 21r02r00             84 	ld	hl,#(_ballSprite + 0x0002)
   000D 36 00                85 	ld	(hl),#0x00
   000F 21r03r00             86 	ld	hl,#(_ballSprite + 0x0003)
   0012 36 00                87 	ld	(hl),#0x00
   0014 21r04r00             88 	ld	hl,#(_ballSprite + 0x0004)
   0017 36 00                89 	ld	(hl),#0x00
   0019 21r05r00             90 	ld	hl,#(_ballSprite + 0x0005)
   001C 36 00                91 	ld	(hl),#0x00
   001E 21r06r00             92 	ld	hl,#(_ballSprite + 0x0006)
   0021 36 00                93 	ld	(hl),#0x00
   0023 21r07r00             94 	ld	hl,#(_ballSprite + 0x0007)
   0026 36 00                95 	ld	(hl),#0x00
   0028 21r08r00             96 	ld	hl,#(_ballSprite + 0x0008)
   002B 36 00                97 	ld	(hl),#0x00
   002D 21r09r00             98 	ld	hl,#(_ballSprite + 0x0009)
   0030 36 00                99 	ld	(hl),#0x00
   0032 21r0Ar00            100 	ld	hl,#(_ballSprite + 0x000a)
   0035 36 00               101 	ld	(hl),#0x00
   0037 21r0Br00            102 	ld	hl,#(_ballSprite + 0x000b)
   003A 36 00               103 	ld	(hl),#0x00
   003C 21r0Cr00            104 	ld	hl,#(_ballSprite + 0x000c)
   003F 36 00               105 	ld	(hl),#0x00
   0041 21r0Dr00            106 	ld	hl,#(_ballSprite + 0x000d)
   0044 36 00               107 	ld	(hl),#0x00
   0046 21r0Er00            108 	ld	hl,#(_ballSprite + 0x000e)
   0049 36 00               109 	ld	(hl),#0x00
   004B 21r0Fr00            110 	ld	hl,#(_ballSprite + 0x000f)
   004E 36 00               111 	ld	(hl),#0x00
   0050 21r10r00            112 	ld	hl,#(_ballSprite + 0x0010)
   0053 36 00               113 	ld	(hl),#0x00
   0055 21r11r00            114 	ld	hl,#(_ballSprite + 0x0011)
   0058 36 00               115 	ld	(hl),#0x00
   005A 21r12r00            116 	ld	hl,#(_ballSprite + 0x0012)
   005D 36 00               117 	ld	(hl),#0x00
   005F 21r13r00            118 	ld	hl,#(_ballSprite + 0x0013)
   0062 36 00               119 	ld	(hl),#0x00
   0064 21r14r00            120 	ld	hl,#(_ballSprite + 0x0014)
   0067 36 00               121 	ld	(hl),#0x00
   0069 21r15r00            122 	ld	hl,#(_ballSprite + 0x0015)
   006C 36 00               123 	ld	(hl),#0x00
   006E 21r16r00            124 	ld	hl,#(_ballSprite + 0x0016)
   0071 36 00               125 	ld	(hl),#0x00
   0073 21r17r00            126 	ld	hl,#(_ballSprite + 0x0017)
   0076 36 00               127 	ld	(hl),#0x00
   0078 21r18r00            128 	ld	hl,#(_ballSprite + 0x0018)
   007B 36 07               129 	ld	(hl),#0x07
   007D 21r19r00            130 	ld	hl,#(_ballSprite + 0x0019)
   0080 36 07               131 	ld	(hl),#0x07
   0082 21r1Ar00            132 	ld	hl,#(_ballSprite + 0x001a)
   0085 36 08               133 	ld	(hl),#0x08
   0087 21r1Br00            134 	ld	hl,#(_ballSprite + 0x001b)
   008A 36 0F               135 	ld	(hl),#0x0f
   008C 21r1Cr00            136 	ld	hl,#(_ballSprite + 0x001c)
   008F 36 16               137 	ld	(hl),#0x16
   0091 21r1Dr00            138 	ld	hl,#(_ballSprite + 0x001d)
   0094 36 19               139 	ld	(hl),#0x19
   0096 21r1Er00            140 	ld	hl,#(_ballSprite + 0x001e)
   0099 36 26               141 	ld	(hl),#0x26
   009B 21r1Fr00            142 	ld	hl,#(_ballSprite + 0x001f)
   009E 36 39               143 	ld	(hl),#0x39
   00A0 21r20r00            144 	ld	hl,#(_ballSprite + 0x0020)
   00A3 36 00               145 	ld	(hl),#0x00
   00A5 21r21r00            146 	ld	hl,#(_ballSprite + 0x0021)
   00A8 36 00               147 	ld	(hl),#0x00
   00AA 21r22r00            148 	ld	hl,#(_ballSprite + 0x0022)
   00AD 36 00               149 	ld	(hl),#0x00
   00AF 21r23r00            150 	ld	hl,#(_ballSprite + 0x0023)
   00B2 36 00               151 	ld	(hl),#0x00
   00B4 21r24r00            152 	ld	hl,#(_ballSprite + 0x0024)
   00B7 36 00               153 	ld	(hl),#0x00
   00B9 21r25r00            154 	ld	hl,#(_ballSprite + 0x0025)
   00BC 36 00               155 	ld	(hl),#0x00
   00BE 21r26r00            156 	ld	hl,#(_ballSprite + 0x0026)
   00C1 36 00               157 	ld	(hl),#0x00
   00C3 21r27r00            158 	ld	hl,#(_ballSprite + 0x0027)
   00C6 36 00               159 	ld	(hl),#0x00
   00C8 21r28r00            160 	ld	hl,#(_ballSprite + 0x0028)
   00CB 36 E0               161 	ld	(hl),#0xe0
   00CD 21r29r00            162 	ld	hl,#(_ballSprite + 0x0029)
   00D0 36 E0               163 	ld	(hl),#0xe0
   00D2 21r2Ar00            164 	ld	hl,#(_ballSprite + 0x002a)
   00D5 36 10               165 	ld	(hl),#0x10
   00D7 21r2Br00            166 	ld	hl,#(_ballSprite + 0x002b)
   00DA 36 F0               167 	ld	(hl),#0xf0
   00DC 21r2Cr00            168 	ld	hl,#(_ballSprite + 0x002c)
   00DF 36 08               169 	ld	(hl),#0x08
   00E1 21r2Dr00            170 	ld	hl,#(_ballSprite + 0x002d)
   00E4 36 F8               171 	ld	(hl),#0xf8
   00E6 21r2Er00            172 	ld	hl,#(_ballSprite + 0x002e)
   00E9 36 04               173 	ld	(hl),#0x04
   00EB 21r2Fr00            174 	ld	hl,#(_ballSprite + 0x002f)
   00EE 36 FC               175 	ld	(hl),#0xfc
   00F0 21r30r00            176 	ld	hl,#(_ballSprite + 0x0030)
   00F3 36 20               177 	ld	(hl),#0x20
   00F5 21r31r00            178 	ld	hl,#(_ballSprite + 0x0031)
   00F8 36 3F               179 	ld	(hl),#0x3f
   00FA 21r32r00            180 	ld	hl,#(_ballSprite + 0x0032)
   00FD 36 20               181 	ld	(hl),#0x20
   00FF 21r33r00            182 	ld	hl,#(_ballSprite + 0x0033)
   0102 36 3F               183 	ld	(hl),#0x3f
   0104 21r34r00            184 	ld	hl,#(_ballSprite + 0x0034)
   0107 36 20               185 	ld	(hl),#0x20
   0109 21r35r00            186 	ld	hl,#(_ballSprite + 0x0035)
   010C 36 3F               187 	ld	(hl),#0x3f
   010E 21r36r00            188 	ld	hl,#(_ballSprite + 0x0036)
   0111 36 20               189 	ld	(hl),#0x20
   0113 21r37r00            190 	ld	hl,#(_ballSprite + 0x0037)
   0116 36 3F               191 	ld	(hl),#0x3f
   0118 21r38r00            192 	ld	hl,#(_ballSprite + 0x0038)
   011B 36 20               193 	ld	(hl),#0x20
   011D 21r39r00            194 	ld	hl,#(_ballSprite + 0x0039)
   0120 36 3F               195 	ld	(hl),#0x3f
   0122 21r3Ar00            196 	ld	hl,#(_ballSprite + 0x003a)
   0125 36 10               197 	ld	(hl),#0x10
   0127 21r3Br00            198 	ld	hl,#(_ballSprite + 0x003b)
   012A 36 1F               199 	ld	(hl),#0x1f
   012C 21r3Cr00            200 	ld	hl,#(_ballSprite + 0x003c)
   012F 36 08               201 	ld	(hl),#0x08
   0131 21r3Dr00            202 	ld	hl,#(_ballSprite + 0x003d)
   0134 36 0F               203 	ld	(hl),#0x0f
   0136 21r3Er00            204 	ld	hl,#(_ballSprite + 0x003e)
   0139 36 07               205 	ld	(hl),#0x07
   013B 21r3Fr00            206 	ld	hl,#(_ballSprite + 0x003f)
   013E 36 07               207 	ld	(hl),#0x07
   0140 21r40r00            208 	ld	hl,#(_ballSprite + 0x0040)
   0143 36 04               209 	ld	(hl),#0x04
   0145 21r41r00            210 	ld	hl,#(_ballSprite + 0x0041)
   0148 36 FC               211 	ld	(hl),#0xfc
   014A 21r42r00            212 	ld	hl,#(_ballSprite + 0x0042)
   014D 36 04               213 	ld	(hl),#0x04
   014F 21r43r00            214 	ld	hl,#(_ballSprite + 0x0043)
   0152 36 FC               215 	ld	(hl),#0xfc
   0154 21r44r00            216 	ld	hl,#(_ballSprite + 0x0044)
   0157 36 04               217 	ld	(hl),#0x04
   0159 21r45r00            218 	ld	hl,#(_ballSprite + 0x0045)
   015C 36 FC               219 	ld	(hl),#0xfc
   015E 21r46r00            220 	ld	hl,#(_ballSprite + 0x0046)
   0161 36 04               221 	ld	(hl),#0x04
   0163 21r47r00            222 	ld	hl,#(_ballSprite + 0x0047)
   0166 36 FC               223 	ld	(hl),#0xfc
   0168 21r48r00            224 	ld	hl,#(_ballSprite + 0x0048)
   016B 36 04               225 	ld	(hl),#0x04
   016D 21r49r00            226 	ld	hl,#(_ballSprite + 0x0049)
   0170 36 FC               227 	ld	(hl),#0xfc
   0172 21r4Ar00            228 	ld	hl,#(_ballSprite + 0x004a)
   0175 36 08               229 	ld	(hl),#0x08
   0177 21r4Br00            230 	ld	hl,#(_ballSprite + 0x004b)
   017A 36 F8               231 	ld	(hl),#0xf8
   017C 21r4Cr00            232 	ld	hl,#(_ballSprite + 0x004c)
   017F 36 10               233 	ld	(hl),#0x10
   0181 21r4Dr00            234 	ld	hl,#(_ballSprite + 0x004d)
   0184 36 F0               235 	ld	(hl),#0xf0
   0186 21r4Er00            236 	ld	hl,#(_ballSprite + 0x004e)
   0189 36 E0               237 	ld	(hl),#0xe0
   018B 21r4Fr00            238 	ld	hl,#(_ballSprite + 0x004f)
   018E 36 E0               239 	ld	(hl),#0xe0
   0190 21r50r00            240 	ld	hl,#(_ballSprite + 0x0050)
   0193 36 00               241 	ld	(hl),#0x00
   0195 21r51r00            242 	ld	hl,#(_ballSprite + 0x0051)
   0198 36 00               243 	ld	(hl),#0x00
   019A 21r52r00            244 	ld	hl,#(_ballSprite + 0x0052)
   019D 36 00               245 	ld	(hl),#0x00
   019F 21r53r00            246 	ld	hl,#(_ballSprite + 0x0053)
   01A2 36 00               247 	ld	(hl),#0x00
   01A4 21r54r00            248 	ld	hl,#(_ballSprite + 0x0054)
   01A7 36 00               249 	ld	(hl),#0x00
   01A9 21r55r00            250 	ld	hl,#(_ballSprite + 0x0055)
   01AC 36 00               251 	ld	(hl),#0x00
   01AE 21r56r00            252 	ld	hl,#(_ballSprite + 0x0056)
   01B1 36 00               253 	ld	(hl),#0x00
   01B3 21r57r00            254 	ld	hl,#(_ballSprite + 0x0057)
   01B6 36 00               255 	ld	(hl),#0x00
   01B8 21r58r00            256 	ld	hl,#(_ballSprite + 0x0058)
   01BB 36 07               257 	ld	(hl),#0x07
   01BD 21r59r00            258 	ld	hl,#(_ballSprite + 0x0059)
   01C0 36 07               259 	ld	(hl),#0x07
   01C2 21r5Ar00            260 	ld	hl,#(_ballSprite + 0x005a)
   01C5 36 08               261 	ld	(hl),#0x08
   01C7 21r5Br00            262 	ld	hl,#(_ballSprite + 0x005b)
   01CA 36 0F               263 	ld	(hl),#0x0f
   01CC 21r5Cr00            264 	ld	hl,#(_ballSprite + 0x005c)
   01CF 36 11               265 	ld	(hl),#0x11
   01D1 21r5Dr00            266 	ld	hl,#(_ballSprite + 0x005d)
   01D4 36 1E               267 	ld	(hl),#0x1e
   01D6 21r5Er00            268 	ld	hl,#(_ballSprite + 0x005e)
   01D9 36 21               269 	ld	(hl),#0x21
   01DB 21r5Fr00            270 	ld	hl,#(_ballSprite + 0x005f)
   01DE 36 3E               271 	ld	(hl),#0x3e
   01E0 21r60r00            272 	ld	hl,#(_ballSprite + 0x0060)
   01E3 36 00               273 	ld	(hl),#0x00
   01E5 21r61r00            274 	ld	hl,#(_ballSprite + 0x0061)
   01E8 36 00               275 	ld	(hl),#0x00
   01EA 21r62r00            276 	ld	hl,#(_ballSprite + 0x0062)
   01ED 36 00               277 	ld	(hl),#0x00
   01EF 21r63r00            278 	ld	hl,#(_ballSprite + 0x0063)
   01F2 36 00               279 	ld	(hl),#0x00
   01F4 21r64r00            280 	ld	hl,#(_ballSprite + 0x0064)
   01F7 36 00               281 	ld	(hl),#0x00
   01F9 21r65r00            282 	ld	hl,#(_ballSprite + 0x0065)
   01FC 36 00               283 	ld	(hl),#0x00
   01FE 21r66r00            284 	ld	hl,#(_ballSprite + 0x0066)
   0201 36 00               285 	ld	(hl),#0x00
   0203 21r67r00            286 	ld	hl,#(_ballSprite + 0x0067)
   0206 36 00               287 	ld	(hl),#0x00
   0208 21r68r00            288 	ld	hl,#(_ballSprite + 0x0068)
   020B 36 E0               289 	ld	(hl),#0xe0
   020D 21r69r00            290 	ld	hl,#(_ballSprite + 0x0069)
   0210 36 E0               291 	ld	(hl),#0xe0
   0212 21r6Ar00            292 	ld	hl,#(_ballSprite + 0x006a)
   0215 36 90               293 	ld	(hl),#0x90
   0217 21r6Br00            294 	ld	hl,#(_ballSprite + 0x006b)
   021A 36 70               295 	ld	(hl),#0x70
   021C 21r6Cr00            296 	ld	hl,#(_ballSprite + 0x006c)
   021F 36 88               297 	ld	(hl),#0x88
   0221 21r6Dr00            298 	ld	hl,#(_ballSprite + 0x006d)
   0224 36 78               299 	ld	(hl),#0x78
   0226 21r6Er00            300 	ld	hl,#(_ballSprite + 0x006e)
   0229 36 04               301 	ld	(hl),#0x04
   022B 21r6Fr00            302 	ld	hl,#(_ballSprite + 0x006f)
   022E 36 FC               303 	ld	(hl),#0xfc
   0230 21r70r00            304 	ld	hl,#(_ballSprite + 0x0070)
   0233 36 20               305 	ld	(hl),#0x20
   0235 21r71r00            306 	ld	hl,#(_ballSprite + 0x0071)
   0238 36 3F               307 	ld	(hl),#0x3f
   023A 21r72r00            308 	ld	hl,#(_ballSprite + 0x0072)
   023D 36 20               309 	ld	(hl),#0x20
   023F 21r73r00            310 	ld	hl,#(_ballSprite + 0x0073)
   0242 36 3F               311 	ld	(hl),#0x3f
   0244 21r74r00            312 	ld	hl,#(_ballSprite + 0x0074)
   0247 36 20               313 	ld	(hl),#0x20
   0249 21r75r00            314 	ld	hl,#(_ballSprite + 0x0075)
   024C 36 3F               315 	ld	(hl),#0x3f
   024E 21r76r00            316 	ld	hl,#(_ballSprite + 0x0076)
   0251 36 20               317 	ld	(hl),#0x20
   0253 21r77r00            318 	ld	hl,#(_ballSprite + 0x0077)
   0256 36 3F               319 	ld	(hl),#0x3f
   0258 21r78r00            320 	ld	hl,#(_ballSprite + 0x0078)
   025B 36 20               321 	ld	(hl),#0x20
   025D 21r79r00            322 	ld	hl,#(_ballSprite + 0x0079)
   0260 36 3F               323 	ld	(hl),#0x3f
   0262 21r7Ar00            324 	ld	hl,#(_ballSprite + 0x007a)
   0265 36 10               325 	ld	(hl),#0x10
   0267 21r7Br00            326 	ld	hl,#(_ballSprite + 0x007b)
   026A 36 1F               327 	ld	(hl),#0x1f
   026C 21r7Cr00            328 	ld	hl,#(_ballSprite + 0x007c)
   026F 36 08               329 	ld	(hl),#0x08
   0271 21r7Dr00            330 	ld	hl,#(_ballSprite + 0x007d)
   0274 36 0F               331 	ld	(hl),#0x0f
   0276 21r7Er00            332 	ld	hl,#(_ballSprite + 0x007e)
   0279 36 07               333 	ld	(hl),#0x07
   027B 21r7Fr00            334 	ld	hl,#(_ballSprite + 0x007f)
   027E 36 07               335 	ld	(hl),#0x07
   0280 21r80r00            336 	ld	hl,#(_ballSprite + 0x0080)
   0283 36 04               337 	ld	(hl),#0x04
   0285 21r81r00            338 	ld	hl,#(_ballSprite + 0x0081)
   0288 36 FC               339 	ld	(hl),#0xfc
   028A 21r82r00            340 	ld	hl,#(_ballSprite + 0x0082)
   028D 36 04               341 	ld	(hl),#0x04
   028F 21r83r00            342 	ld	hl,#(_ballSprite + 0x0083)
   0292 36 FC               343 	ld	(hl),#0xfc
   0294 21r84r00            344 	ld	hl,#(_ballSprite + 0x0084)
   0297 36 04               345 	ld	(hl),#0x04
   0299 21r85r00            346 	ld	hl,#(_ballSprite + 0x0085)
   029C 36 FC               347 	ld	(hl),#0xfc
   029E 21r86r00            348 	ld	hl,#(_ballSprite + 0x0086)
   02A1 36 04               349 	ld	(hl),#0x04
   02A3 21r87r00            350 	ld	hl,#(_ballSprite + 0x0087)
   02A6 36 FC               351 	ld	(hl),#0xfc
   02A8 21r88r00            352 	ld	hl,#(_ballSprite + 0x0088)
   02AB 36 04               353 	ld	(hl),#0x04
   02AD 21r89r00            354 	ld	hl,#(_ballSprite + 0x0089)
   02B0 36 FC               355 	ld	(hl),#0xfc
   02B2 21r8Ar00            356 	ld	hl,#(_ballSprite + 0x008a)
   02B5 36 08               357 	ld	(hl),#0x08
   02B7 21r8Br00            358 	ld	hl,#(_ballSprite + 0x008b)
   02BA 36 F8               359 	ld	(hl),#0xf8
   02BC 21r8Cr00            360 	ld	hl,#(_ballSprite + 0x008c)
   02BF 36 10               361 	ld	(hl),#0x10
   02C1 21r8Dr00            362 	ld	hl,#(_ballSprite + 0x008d)
   02C4 36 F0               363 	ld	(hl),#0xf0
   02C6 21r8Er00            364 	ld	hl,#(_ballSprite + 0x008e)
   02C9 36 E0               365 	ld	(hl),#0xe0
   02CB 21r8Fr00            366 	ld	hl,#(_ballSprite + 0x008f)
   02CE 36 E0               367 	ld	(hl),#0xe0
   02D0 21r90r00            368 	ld	hl,#(_ballSprite + 0x0090)
   02D3 36 00               369 	ld	(hl),#0x00
   02D5 21r91r00            370 	ld	hl,#(_ballSprite + 0x0091)
   02D8 36 00               371 	ld	(hl),#0x00
   02DA 21r92r00            372 	ld	hl,#(_ballSprite + 0x0092)
   02DD 36 01               373 	ld	(hl),#0x01
   02DF 21r93r00            374 	ld	hl,#(_ballSprite + 0x0093)
   02E2 36 01               375 	ld	(hl),#0x01
   02E4 21r94r00            376 	ld	hl,#(_ballSprite + 0x0094)
   02E7 36 02               377 	ld	(hl),#0x02
   02E9 21r95r00            378 	ld	hl,#(_ballSprite + 0x0095)
   02EC 36 03               379 	ld	(hl),#0x03
   02EE 21r96r00            380 	ld	hl,#(_ballSprite + 0x0096)
   02F1 36 05               381 	ld	(hl),#0x05
   02F3 21r97r00            382 	ld	hl,#(_ballSprite + 0x0097)
   02F6 36 06               383 	ld	(hl),#0x06
   02F8 21r98r00            384 	ld	hl,#(_ballSprite + 0x0098)
   02FB 36 07               385 	ld	(hl),#0x07
   02FD 21r99r00            386 	ld	hl,#(_ballSprite + 0x0099)
   0300 36 04               387 	ld	(hl),#0x04
   0302 21r9Ar00            388 	ld	hl,#(_ballSprite + 0x009a)
   0305 36 08               389 	ld	(hl),#0x08
   0307 21r9Br00            390 	ld	hl,#(_ballSprite + 0x009b)
   030A 36 0F               391 	ld	(hl),#0x0f
   030C 21r9Cr00            392 	ld	hl,#(_ballSprite + 0x009c)
   030F 36 08               393 	ld	(hl),#0x08
   0311 21r9Dr00            394 	ld	hl,#(_ballSprite + 0x009d)
   0314 36 0F               395 	ld	(hl),#0x0f
   0316 21r9Er00            396 	ld	hl,#(_ballSprite + 0x009e)
   0319 36 08               397 	ld	(hl),#0x08
   031B 21r9Fr00            398 	ld	hl,#(_ballSprite + 0x009f)
   031E 36 0F               399 	ld	(hl),#0x0f
   0320 21rA0r00            400 	ld	hl,#(_ballSprite + 0x00a0)
   0323 36 00               401 	ld	(hl),#0x00
   0325 21rA1r00            402 	ld	hl,#(_ballSprite + 0x00a1)
   0328 36 00               403 	ld	(hl),#0x00
   032A 21rA2r00            404 	ld	hl,#(_ballSprite + 0x00a2)
   032D 36 80               405 	ld	(hl),#0x80
   032F 21rA3r00            406 	ld	hl,#(_ballSprite + 0x00a3)
   0332 36 80               407 	ld	(hl),#0x80
   0334 21rA4r00            408 	ld	hl,#(_ballSprite + 0x00a4)
   0337 36 40               409 	ld	(hl),#0x40
   0339 21rA5r00            410 	ld	hl,#(_ballSprite + 0x00a5)
   033C 36 C0               411 	ld	(hl),#0xc0
   033E 21rA6r00            412 	ld	hl,#(_ballSprite + 0x00a6)
   0341 36 20               413 	ld	(hl),#0x20
   0343 21rA7r00            414 	ld	hl,#(_ballSprite + 0x00a7)
   0346 36 E0               415 	ld	(hl),#0xe0
   0348 21rA8r00            416 	ld	hl,#(_ballSprite + 0x00a8)
   034B 36 20               417 	ld	(hl),#0x20
   034D 21rA9r00            418 	ld	hl,#(_ballSprite + 0x00a9)
   0350 36 E0               419 	ld	(hl),#0xe0
   0352 21rAAr00            420 	ld	hl,#(_ballSprite + 0x00aa)
   0355 36 10               421 	ld	(hl),#0x10
   0357 21rABr00            422 	ld	hl,#(_ballSprite + 0x00ab)
   035A 36 F0               423 	ld	(hl),#0xf0
   035C 21rACr00            424 	ld	hl,#(_ballSprite + 0x00ac)
   035F 36 10               425 	ld	(hl),#0x10
   0361 21rADr00            426 	ld	hl,#(_ballSprite + 0x00ad)
   0364 36 F0               427 	ld	(hl),#0xf0
   0366 21rAEr00            428 	ld	hl,#(_ballSprite + 0x00ae)
   0369 36 10               429 	ld	(hl),#0x10
   036B 21rAFr00            430 	ld	hl,#(_ballSprite + 0x00af)
   036E 36 F0               431 	ld	(hl),#0xf0
   0370 21rB0r00            432 	ld	hl,#(_ballSprite + 0x00b0)
   0373 36 08               433 	ld	(hl),#0x08
   0375 21rB1r00            434 	ld	hl,#(_ballSprite + 0x00b1)
   0378 36 0F               435 	ld	(hl),#0x0f
   037A 21rB2r00            436 	ld	hl,#(_ballSprite + 0x00b2)
   037D 36 08               437 	ld	(hl),#0x08
   037F 21rB3r00            438 	ld	hl,#(_ballSprite + 0x00b3)
   0382 36 0F               439 	ld	(hl),#0x0f
   0384 21rB4r00            440 	ld	hl,#(_ballSprite + 0x00b4)
   0387 36 08               441 	ld	(hl),#0x08
   0389 21rB5r00            442 	ld	hl,#(_ballSprite + 0x00b5)
   038C 36 0F               443 	ld	(hl),#0x0f
   038E 21rB6r00            444 	ld	hl,#(_ballSprite + 0x00b6)
   0391 36 08               445 	ld	(hl),#0x08
   0393 21rB7r00            446 	ld	hl,#(_ballSprite + 0x00b7)
   0396 36 0F               447 	ld	(hl),#0x0f
   0398 21rB8r00            448 	ld	hl,#(_ballSprite + 0x00b8)
   039B 36 04               449 	ld	(hl),#0x04
   039D 21rB9r00            450 	ld	hl,#(_ballSprite + 0x00b9)
   03A0 36 07               451 	ld	(hl),#0x07
   03A2 21rBAr00            452 	ld	hl,#(_ballSprite + 0x00ba)
   03A5 36 04               453 	ld	(hl),#0x04
   03A7 21rBBr00            454 	ld	hl,#(_ballSprite + 0x00bb)
   03AA 36 07               455 	ld	(hl),#0x07
   03AC 21rBCr00            456 	ld	hl,#(_ballSprite + 0x00bc)
   03AF 36 02               457 	ld	(hl),#0x02
   03B1 21rBDr00            458 	ld	hl,#(_ballSprite + 0x00bd)
   03B4 36 03               459 	ld	(hl),#0x03
   03B6 21rBEr00            460 	ld	hl,#(_ballSprite + 0x00be)
   03B9 36 01               461 	ld	(hl),#0x01
   03BB 21rBFr00            462 	ld	hl,#(_ballSprite + 0x00bf)
   03BE 36 01               463 	ld	(hl),#0x01
   03C0 21rC0r00            464 	ld	hl,#(_ballSprite + 0x00c0)
   03C3 36 10               465 	ld	(hl),#0x10
   03C5 21rC1r00            466 	ld	hl,#(_ballSprite + 0x00c1)
   03C8 36 F0               467 	ld	(hl),#0xf0
   03CA 21rC2r00            468 	ld	hl,#(_ballSprite + 0x00c2)
   03CD 36 10               469 	ld	(hl),#0x10
   03CF 21rC3r00            470 	ld	hl,#(_ballSprite + 0x00c3)
   03D2 36 F0               471 	ld	(hl),#0xf0
   03D4 21rC4r00            472 	ld	hl,#(_ballSprite + 0x00c4)
   03D7 36 10               473 	ld	(hl),#0x10
   03D9 21rC5r00            474 	ld	hl,#(_ballSprite + 0x00c5)
   03DC 36 F0               475 	ld	(hl),#0xf0
   03DE 21rC6r00            476 	ld	hl,#(_ballSprite + 0x00c6)
   03E1 36 10               477 	ld	(hl),#0x10
   03E3 21rC7r00            478 	ld	hl,#(_ballSprite + 0x00c7)
   03E6 36 F0               479 	ld	(hl),#0xf0
   03E8 21rC8r00            480 	ld	hl,#(_ballSprite + 0x00c8)
   03EB 36 20               481 	ld	(hl),#0x20
   03ED 21rC9r00            482 	ld	hl,#(_ballSprite + 0x00c9)
   03F0 36 E0               483 	ld	(hl),#0xe0
   03F2 21rCAr00            484 	ld	hl,#(_ballSprite + 0x00ca)
   03F5 36 20               485 	ld	(hl),#0x20
   03F7 21rCBr00            486 	ld	hl,#(_ballSprite + 0x00cb)
   03FA 36 E0               487 	ld	(hl),#0xe0
   03FC 21rCCr00            488 	ld	hl,#(_ballSprite + 0x00cc)
   03FF 36 40               489 	ld	(hl),#0x40
   0401 21rCDr00            490 	ld	hl,#(_ballSprite + 0x00cd)
   0404 36 C0               491 	ld	(hl),#0xc0
   0406 21rCEr00            492 	ld	hl,#(_ballSprite + 0x00ce)
   0409 36 80               493 	ld	(hl),#0x80
   040B 21rCFr00            494 	ld	hl,#(_ballSprite + 0x00cf)
   040E 36 80               495 	ld	(hl),#0x80
   0410 21rD0r00            496 	ld	hl,#(_ballSprite + 0x00d0)
   0413 36 03               497 	ld	(hl),#0x03
   0415 21rD1r00            498 	ld	hl,#(_ballSprite + 0x00d1)
   0418 36 03               499 	ld	(hl),#0x03
   041A 21rD2r00            500 	ld	hl,#(_ballSprite + 0x00d2)
   041D 36 0C               501 	ld	(hl),#0x0c
   041F 21rD3r00            502 	ld	hl,#(_ballSprite + 0x00d3)
   0422 36 0F               503 	ld	(hl),#0x0f
   0424 21rD4r00            504 	ld	hl,#(_ballSprite + 0x00d4)
   0427 36 36               505 	ld	(hl),#0x36
   0429 21rD5r00            506 	ld	hl,#(_ballSprite + 0x00d5)
   042C 36 39               507 	ld	(hl),#0x39
   042E 21rD6r00            508 	ld	hl,#(_ballSprite + 0x00d6)
   0431 36 4E               509 	ld	(hl),#0x4e
   0433 21rD7r00            510 	ld	hl,#(_ballSprite + 0x00d7)
   0436 36 71               511 	ld	(hl),#0x71
   0438 21rD8r00            512 	ld	hl,#(_ballSprite + 0x00d8)
   043B 36 80               513 	ld	(hl),#0x80
   043D 21rD9r00            514 	ld	hl,#(_ballSprite + 0x00d9)
   0440 36 FF               515 	ld	(hl),#0xff
   0442 21rDAr00            516 	ld	hl,#(_ballSprite + 0x00da)
   0445 36 80               517 	ld	(hl),#0x80
   0447 21rDBr00            518 	ld	hl,#(_ballSprite + 0x00db)
   044A 36 FF               519 	ld	(hl),#0xff
   044C 21rDCr00            520 	ld	hl,#(_ballSprite + 0x00dc)
   044F 36 40               521 	ld	(hl),#0x40
   0451 21rDDr00            522 	ld	hl,#(_ballSprite + 0x00dd)
   0454 36 7F               523 	ld	(hl),#0x7f
   0456 21rDEr00            524 	ld	hl,#(_ballSprite + 0x00de)
   0459 36 3F               525 	ld	(hl),#0x3f
   045B 21rDFr00            526 	ld	hl,#(_ballSprite + 0x00df)
   045E 36 3F               527 	ld	(hl),#0x3f
   0460 21rE0r00            528 	ld	hl,#(_ballSprite + 0x00e0)
   0463 36 C0               529 	ld	(hl),#0xc0
   0465 21rE1r00            530 	ld	hl,#(_ballSprite + 0x00e1)
   0468 36 C0               531 	ld	(hl),#0xc0
   046A 21rE2r00            532 	ld	hl,#(_ballSprite + 0x00e2)
   046D 36 30               533 	ld	(hl),#0x30
   046F 21rE3r00            534 	ld	hl,#(_ballSprite + 0x00e3)
   0472 36 F0               535 	ld	(hl),#0xf0
   0474 21rE4r00            536 	ld	hl,#(_ballSprite + 0x00e4)
   0477 36 0C               537 	ld	(hl),#0x0c
   0479 21rE5r00            538 	ld	hl,#(_ballSprite + 0x00e5)
   047C 36 FC               539 	ld	(hl),#0xfc
   047E 21rE6r00            540 	ld	hl,#(_ballSprite + 0x00e6)
   0481 36 02               541 	ld	(hl),#0x02
   0483 21rE7r00            542 	ld	hl,#(_ballSprite + 0x00e7)
   0486 36 FE               543 	ld	(hl),#0xfe
   0488 21rE8r00            544 	ld	hl,#(_ballSprite + 0x00e8)
   048B 36 01               545 	ld	(hl),#0x01
   048D 21rE9r00            546 	ld	hl,#(_ballSprite + 0x00e9)
   0490 36 FF               547 	ld	(hl),#0xff
   0492 21rEAr00            548 	ld	hl,#(_ballSprite + 0x00ea)
   0495 36 01               549 	ld	(hl),#0x01
   0497 21rEBr00            550 	ld	hl,#(_ballSprite + 0x00eb)
   049A 36 FF               551 	ld	(hl),#0xff
   049C 21rECr00            552 	ld	hl,#(_ballSprite + 0x00ec)
   049F 36 02               553 	ld	(hl),#0x02
   04A1 21rEDr00            554 	ld	hl,#(_ballSprite + 0x00ed)
   04A4 36 FE               555 	ld	(hl),#0xfe
   04A6 21rEEr00            556 	ld	hl,#(_ballSprite + 0x00ee)
   04A9 36 FC               557 	ld	(hl),#0xfc
   04AB 21rEFr00            558 	ld	hl,#(_ballSprite + 0x00ef)
   04AE 36 FC               559 	ld	(hl),#0xfc
                            560 ;main.c:9: INT8 gravity = -2;
   04B0 21rF3r00            561 	ld	hl,#_gravity
   04B3 36 FE               562 	ld	(hl),#0xfe
                            563 ;main.c:11: UINT8 floorYPosition = 136;
   04B5 21rF5r00            564 	ld	hl,#_floorYPosition
   04B8 36 88               565 	ld	(hl),#0x88
                            566 ;main.c:13: UINT8 timer = 0;
   04BA 21rF7r00            567 	ld	hl,#_timer
   04BD 36 00               568 	ld	(hl),#0x00
                            569 ;--------------------------------------------------------
                            570 ; Home
                            571 ;--------------------------------------------------------
                            572 	.area _HOME
                            573 	.area _HOME
                            574 ;--------------------------------------------------------
                            575 ; code
                            576 ;--------------------------------------------------------
                            577 	.area _CODE
                            578 ;main.c:18: void performantDelay(UINT8 numloops)
                            579 ;	---------------------------------
                            580 ; Function performantDelay
                            581 ; ---------------------------------
   0000                     582 _performantDelay::
                            583 ;main.c:21: for(i=0;i < numloops;i++)
   0000 0E 00               584 	ld	c,#0x00
   0002                     585 00103$:
   0002 79                  586 	ld	a,c
   0003 F8 02               587 	ldhl	sp,#2
   0005 96                  588 	sub	a, (hl)
   0006 D0                  589 	ret	NC
                            590 ;main.c:23: wait_vbl_done();
   0007 C5                  591 	push	bc
   0008 CDr00r00            592 	call	_wait_vbl_done
   000B C1                  593 	pop	bc
                            594 ;main.c:21: for(i=0;i < numloops;i++)
   000C 0C                  595 	inc	c
   000D 18 F3               596 	jr	00103$
   000F C9                  597 	ret
                            598 ;main.c:41: void gameBallAnimRollLoop()//looping ball moving animation.(highlight jitters)
                            599 ;	---------------------------------
                            600 ; Function gameBallAnimRollLoop
                            601 ; ---------------------------------
   0010                     602 _gameBallAnimRollLoop::
                            603 ;main.c:43: set_sprite_tile(1, 5);
   0010 21 01 05            604 	ld	hl,#0x0501
   0013 E5                  605 	push	hl
   0014 CDr00r00            606 	call	_set_sprite_tile
   0017 E8 02               607 	add	sp, #2
                            608 ;main.c:44: set_sprite_tile(2, 6);
   0019 21 02 06            609 	ld	hl,#0x0602
   001C E5                  610 	push	hl
   001D CDr00r00            611 	call	_set_sprite_tile
   0020 E8 02               612 	add	sp, #2
                            613 ;main.c:45: set_sprite_tile(3, 7);
   0022 21 03 07            614 	ld	hl,#0x0703
   0025 E5                  615 	push	hl
   0026 CDr00r00            616 	call	_set_sprite_tile
   0029 E8 02               617 	add	sp, #2
                            618 ;main.c:46: set_sprite_tile(4, 8);
   002B 21 04 08            619 	ld	hl,#0x0804
   002E E5                  620 	push	hl
   002F CDr00r00            621 	call	_set_sprite_tile
   0032 E8 02               622 	add	sp, #2
   0034 C9                  623 	ret
                            624 ;main.c:49: void gameBallStaticStretched()//static ball stretch
                            625 ;	---------------------------------
                            626 ; Function gameBallStaticStretched
                            627 ; ---------------------------------
   0035                     628 _gameBallStaticStretched::
                            629 ;main.c:51: set_sprite_tile(1, 9);
   0035 21 01 09            630 	ld	hl,#0x0901
   0038 E5                  631 	push	hl
   0039 CDr00r00            632 	call	_set_sprite_tile
   003C E8 02               633 	add	sp, #2
                            634 ;main.c:52: set_sprite_tile(2, 10);
   003E 21 02 0A            635 	ld	hl,#0x0a02
   0041 E5                  636 	push	hl
   0042 CDr00r00            637 	call	_set_sprite_tile
   0045 E8 02               638 	add	sp, #2
                            639 ;main.c:53: set_sprite_tile(3, 11);
   0047 21 03 0B            640 	ld	hl,#0x0b03
   004A E5                  641 	push	hl
   004B CDr00r00            642 	call	_set_sprite_tile
   004E E8 02               643 	add	sp, #2
                            644 ;main.c:54: set_sprite_tile(4, 12);
   0050 21 04 0C            645 	ld	hl,#0x0c04
   0053 E5                  646 	push	hl
   0054 CDr00r00            647 	call	_set_sprite_tile
   0057 E8 02               648 	add	sp, #2
   0059 C9                  649 	ret
                            650 ;main.c:57: void gameBallStaticRest()//static ball rest
                            651 ;	---------------------------------
                            652 ; Function gameBallStaticRest
                            653 ; ---------------------------------
   005A                     654 _gameBallStaticRest::
                            655 ;main.c:59: set_sprite_tile(1, 1);
   005A 21 01 01            656 	ld	hl,#0x0101
   005D E5                  657 	push	hl
   005E CDr00r00            658 	call	_set_sprite_tile
   0061 E8 02               659 	add	sp, #2
                            660 ;main.c:60: set_sprite_tile(2, 2);
   0063 21 02 02            661 	ld	hl,#0x0202
   0066 E5                  662 	push	hl
   0067 CDr00r00            663 	call	_set_sprite_tile
   006A E8 02               664 	add	sp, #2
                            665 ;main.c:61: set_sprite_tile(3, 3);
   006C 21 03 03            666 	ld	hl,#0x0303
   006F E5                  667 	push	hl
   0070 CDr00r00            668 	call	_set_sprite_tile
   0073 E8 02               669 	add	sp, #2
                            670 ;main.c:62: set_sprite_tile(4, 4);
   0075 21 04 04            671 	ld	hl,#0x0404
   0078 E5                  672 	push	hl
   0079 CDr00r00            673 	call	_set_sprite_tile
   007C E8 02               674 	add	sp, #2
   007E C9                  675 	ret
                            676 ;main.c:64: void gameBallAnimSquashed(UINT8 numloops)//static ball squashed
                            677 ;	---------------------------------
                            678 ; Function gameBallAnimSquashed
                            679 ; ---------------------------------
   007F                     680 _gameBallAnimSquashed::
   007F 3B                  681 	dec	sp
                            682 ;main.c:67: for(i=0;i < numloops;i++)
   0080 F8 00               683 	ldhl	sp,#0
   0082 36 00               684 	ld	(hl),#0x00
   0084                     685 00103$:
   0084 F8 00               686 	ldhl	sp,#0
   0086 7E                  687 	ld	a,(hl)
   0087 F8 03               688 	ldhl	sp,#3
   0089 96                  689 	sub	a, (hl)
   008A 30 29               690 	jr	NC,00101$
                            691 ;main.c:69: set_sprite_tile(1, 0);
   008C 21 01 00            692 	ld	hl,#0x0001
   008F E5                  693 	push	hl
   0090 CDr00r00            694 	call	_set_sprite_tile
   0093 E8 02               695 	add	sp, #2
                            696 ;main.c:70: set_sprite_tile(2, 0);
   0095 21 02 00            697 	ld	hl,#0x0002
   0098 E5                  698 	push	hl
   0099 CDr00r00            699 	call	_set_sprite_tile
   009C E8 02               700 	add	sp, #2
                            701 ;main.c:71: set_sprite_tile(3, 13);
   009E 21 03 0D            702 	ld	hl,#0x0d03
   00A1 E5                  703 	push	hl
   00A2 CDr00r00            704 	call	_set_sprite_tile
   00A5 E8 02               705 	add	sp, #2
                            706 ;main.c:72: set_sprite_tile(4, 14);
   00A7 21 04 0E            707 	ld	hl,#0x0e04
   00AA E5                  708 	push	hl
   00AB CDr00r00            709 	call	_set_sprite_tile
   00AE E8 02               710 	add	sp, #2
                            711 ;main.c:67: for(i=0;i < numloops;i++)
   00B0 F8 00               712 	ldhl	sp,#0
   00B2 34                  713 	inc	(hl)
   00B3 18 CF               714 	jr	00103$
   00B5                     715 00101$:
                            716 ;main.c:75: gameBallStaticRest();
   00B5 CDr5Ar00            717 	call	_gameBallStaticRest
   00B8 33                  718 	inc	sp
   00B9 C9                  719 	ret
                            720 ;main.c:79: void moveGameCharacter(struct gameCharacter *character, UINT8 x, UINT8 y)
                            721 ;	---------------------------------
                            722 ; Function moveGameCharacter
                            723 ; ---------------------------------
   00BA                     724 _moveGameCharacter::
   00BA E8 FC               725 	add	sp, #-4
                            726 ;main.c:81: move_sprite(character->spriteId[0],x, y);
   00BC F8 06               727 	ldhl	sp,#6
   00BE 2A                  728 	ld	a,(hl+)
   00BF 5E                  729 	ld	e, (hl)
   00C0 F8 02               730 	ldhl	sp,#2
   00C2 22                  731 	ld	(hl+),a
   00C3 73                  732 	ld	(hl),e
   00C4 2B                  733 	dec	hl
   00C5 5E                  734 	ld	e,(hl)
   00C6 23                  735 	inc	hl
   00C7 56                  736 	ld	d,(hl)
   00C8 1A                  737 	ld	a,(de)
   00C9 47                  738 	ld	b,a
   00CA F8 09               739 	ldhl	sp,#9
   00CC 7E                  740 	ld	a,(hl)
   00CD F5                  741 	push	af
   00CE 33                  742 	inc	sp
   00CF 2B                  743 	dec	hl
   00D0 7E                  744 	ld	a,(hl)
   00D1 F5                  745 	push	af
   00D2 33                  746 	inc	sp
   00D3 C5                  747 	push	bc
   00D4 33                  748 	inc	sp
   00D5 CDr00r00            749 	call	_move_sprite
   00D8 E8 03               750 	add	sp, #3
                            751 ;main.c:82: move_sprite(character->spriteId[1],x + 8, y);
   00DA F8 08               752 	ldhl	sp,#8
   00DC 7E                  753 	ld	a,(hl)
   00DD C6 08               754 	add	a, #0x08
   00DF F8 01               755 	ldhl	sp,#1
   00E1 22                  756 	ld	(hl+),a
   00E2 4E                  757 	ld	c,(hl)
   00E3 23                  758 	inc	hl
   00E4 46                  759 	ld	b,(hl)
   00E5 03                  760 	inc	bc
   00E6 0A                  761 	ld	a,(bc)
   00E7 47                  762 	ld	b,a
   00E8 F8 09               763 	ldhl	sp,#9
   00EA 7E                  764 	ld	a,(hl)
   00EB F5                  765 	push	af
   00EC 33                  766 	inc	sp
   00ED F8 02               767 	ldhl	sp,#2
   00EF 7E                  768 	ld	a,(hl)
   00F0 F5                  769 	push	af
   00F1 33                  770 	inc	sp
   00F2 C5                  771 	push	bc
   00F3 33                  772 	inc	sp
   00F4 CDr00r00            773 	call	_move_sprite
   00F7 E8 03               774 	add	sp, #3
                            775 ;main.c:83: move_sprite(character->spriteId[2],x, y + 8);
   00F9 F8 09               776 	ldhl	sp,#9
   00FB 7E                  777 	ld	a,(hl)
   00FC C6 08               778 	add	a, #0x08
   00FE F8 00               779 	ldhl	sp,#0
   0100 77                  780 	ld	(hl),a
   0101 F8 02               781 	ldhl	sp,#(3 - 1)
   0103 4E                  782 	ld	c,(hl)
   0104 23                  783 	inc	hl
   0105 46                  784 	ld	b,(hl)
   0106 03                  785 	inc	bc
   0107 03                  786 	inc	bc
   0108 0A                  787 	ld	a,(bc)
   0109 47                  788 	ld	b,a
   010A F8 00               789 	ldhl	sp,#0
   010C 7E                  790 	ld	a,(hl)
   010D F5                  791 	push	af
   010E 33                  792 	inc	sp
   010F F8 09               793 	ldhl	sp,#9
   0111 7E                  794 	ld	a,(hl)
   0112 F5                  795 	push	af
   0113 33                  796 	inc	sp
   0114 C5                  797 	push	bc
   0115 33                  798 	inc	sp
   0116 CDr00r00            799 	call	_move_sprite
   0119 E8 03               800 	add	sp, #3
                            801 ;main.c:84: move_sprite(character->spriteId[3],x + 8, y + 8);
   011B F8 02               802 	ldhl	sp,#(3 - 1)
   011D 4E                  803 	ld	c,(hl)
   011E 23                  804 	inc	hl
   011F 46                  805 	ld	b,(hl)
   0120 03                  806 	inc	bc
   0121 03                  807 	inc	bc
   0122 03                  808 	inc	bc
   0123 0A                  809 	ld	a,(bc)
   0124 47                  810 	ld	b,a
   0125 F8 00               811 	ldhl	sp,#0
   0127 7E                  812 	ld	a,(hl)
   0128 F5                  813 	push	af
   0129 33                  814 	inc	sp
   012A 23                  815 	inc	hl
   012B 7E                  816 	ld	a,(hl)
   012C F5                  817 	push	af
   012D 33                  818 	inc	sp
   012E C5                  819 	push	bc
   012F 33                  820 	inc	sp
   0130 CDr00r00            821 	call	_move_sprite
   0133 E8 03               822 	add	sp, #3
   0135 E8 04               823 	add	sp, #4
   0137 C9                  824 	ret
                            825 ;main.c:88: void setupBallSprite01()
                            826 ;	---------------------------------
                            827 ; Function setupBallSprite01
                            828 ; ---------------------------------
   0138                     829 _setupBallSprite01::
                            830 ;main.c:90: set_sprite_data(0, 15, ballSprite);
   0138 21r00r00            831 	ld	hl,#_ballSprite
   013B E5                  832 	push	hl
   013C 21 00 0F            833 	ld	hl,#0x0f00
   013F E5                  834 	push	hl
   0140 CDr00r00            835 	call	_set_sprite_data
   0143 E8 04               836 	add	sp, #4
                            837 ;main.c:92: ballSprite01.x=16;
   0145 21rFEr00            838 	ld	hl,#(_ballSprite01 + 0x0004)
   0148 36 10               839 	ld	(hl),#0x10
                            840 ;main.c:93: ballSprite01.y = floorYPosition;
   014A 11rFFr00            841 	ld	de,#(_ballSprite01 + 0x0005)
   014D 21rF5r00            842 	ld	hl,#_floorYPosition
   0150 7E                  843 	ld	a,(hl)
   0151 12                  844 	ld	(de),a
                            845 ;main.c:94: ballSprite01.width=16;
   0152 21r00r01            846 	ld	hl,#(_ballSprite01 + 0x0006)
   0155 36 10               847 	ld	(hl),#0x10
                            848 ;main.c:95: ballSprite01.height=16;
   0157 21r01r01            849 	ld	hl,#(_ballSprite01 + 0x0007)
   015A 36 10               850 	ld	(hl),#0x10
                            851 ;main.c:97: set_sprite_tile(1,1);
   015C 21 01 01            852 	ld	hl,#0x0101
   015F E5                  853 	push	hl
   0160 CDr00r00            854 	call	_set_sprite_tile
   0163 E8 02               855 	add	sp, #2
                            856 ;main.c:98: ballSprite01.spriteId[0]=1;
   0165 21rFAr00            857 	ld	hl,#_ballSprite01
   0168 36 01               858 	ld	(hl),#0x01
                            859 ;main.c:99: set_sprite_tile(2,2);
   016A 21 02 02            860 	ld	hl,#0x0202
   016D E5                  861 	push	hl
   016E CDr00r00            862 	call	_set_sprite_tile
   0171 E8 02               863 	add	sp, #2
                            864 ;main.c:100: ballSprite01.spriteId[1]=2;
   0173 21rFBr00            865 	ld	hl,#(_ballSprite01 + 0x0001)
   0176 36 02               866 	ld	(hl),#0x02
                            867 ;main.c:101: set_sprite_tile(3,3);
   0178 21 03 03            868 	ld	hl,#0x0303
   017B E5                  869 	push	hl
   017C CDr00r00            870 	call	_set_sprite_tile
   017F E8 02               871 	add	sp, #2
                            872 ;main.c:102: ballSprite01.spriteId[2]=3;
   0181 21rFCr00            873 	ld	hl,#(_ballSprite01 + 0x0002)
   0184 36 03               874 	ld	(hl),#0x03
                            875 ;main.c:103: set_sprite_tile(4,4);
   0186 21 04 04            876 	ld	hl,#0x0404
   0189 E5                  877 	push	hl
   018A CDr00r00            878 	call	_set_sprite_tile
   018D E8 02               879 	add	sp, #2
                            880 ;main.c:104: ballSprite01.spriteId[3]=4;
   018F 21rFDr00            881 	ld	hl,#(_ballSprite01 + 0x0003)
   0192 36 04               882 	ld	(hl),#0x04
                            883 ;main.c:106: moveGameCharacter(&ballSprite01,ballSprite01.x,ballSprite01.y);
   0194 11rFFr00            884 	ld	de, #(_ballSprite01 + 0x0005) + 0
   0197 1A                  885 	ld	a,(de)
   0198 47                  886 	ld	b,a
   0199 11rFEr00            887 	ld	de, #(_ballSprite01 + 0x0004) + 0
   019C 1A                  888 	ld	a,(de)
   019D 4F                  889 	ld	c,a
   019E C5                  890 	push	bc
   019F 33                  891 	inc	sp
   01A0 79                  892 	ld	a,c
   01A1 F5                  893 	push	af
   01A2 33                  894 	inc	sp
   01A3 21rFAr00            895 	ld	hl,#_ballSprite01
   01A6 E5                  896 	push	hl
   01A7 CDrBAr00            897 	call	_moveGameCharacter
   01AA E8 04               898 	add	sp, #4
   01AC C9                  899 	ret
                            900 ;main.c:109: INT8 wouldHitSurf(UINT8 projectedYPosition)
                            901 ;	---------------------------------
                            902 ; Function wouldHitSurf
                            903 ; ---------------------------------
   01AD                     904 _wouldHitSurf::
                            905 ;main.c:111: if(projectedYPosition >= floorYPosition){
   01AD F8 02               906 	ldhl	sp,#2
   01AF 7E                  907 	ld	a,(hl)
   01B0 21rF5r00            908 	ld	hl,#_floorYPosition
   01B3 96                  909 	sub	a, (hl)
   01B4 38 02               910 	jr	C,00102$
                            911 ;main.c:112: return floorYPosition;
   01B6 5E                  912 	ld	e,(hl)
   01B7 C9                  913 	ret
   01B8                     914 00102$:
                            915 ;main.c:114: return -1;
   01B8 1E FF               916 	ld	e,#0xff
   01BA C9                  917 	ret
                            918 ;main.c:118: void jump()
                            919 ;	---------------------------------
                            920 ; Function jump
                            921 ; ---------------------------------
   01BB                     922 _jump::
                            923 ;main.c:120: if(jumping == 0)
   01BB 21rF2r00            924 	ld	hl,#_jumping
   01BE 7E                  925 	ld	a,(hl)
   01BF B7                  926 	or	a, a
   01C0 20 07               927 	jr	NZ,00102$
                            928 ;main.c:122: jumping = 1;
   01C2 36 01               929 	ld	(hl),#0x01
                            930 ;main.c:123: currentSpeedY = 10;
   01C4 21rF4r00            931 	ld	hl,#_currentSpeedY
   01C7 36 0A               932 	ld	(hl),#0x0a
   01C9                     933 00102$:
                            934 ;main.c:125: currentSpeedY = currentSpeedY + gravity;
   01C9 21rF4r00            935 	ld	hl,#_currentSpeedY
   01CC 4E                  936 	ld	c,(hl)
   01CD 79                  937 	ld	a,c
   01CE 21rF3r00            938 	ld	hl,#_gravity
   01D1 86                  939 	add	a, (hl)
   01D2 21rF4r00            940 	ld	hl,#_currentSpeedY
   01D5 77                  941 	ld	(hl),a
                            942 ;main.c:127: ballSprite01.y -= currentSpeedY;
   01D6 11rFFr00            943 	ld	de, #(_ballSprite01 + 0x0005) + 0
   01D9 1A                  944 	ld	a,(de)
   01DA 4F                  945 	ld	c,a
   01DB 96                  946 	sub	a, (hl)
   01DC 47                  947 	ld	b,a
   01DD 21rFFr00            948 	ld	hl,#(_ballSprite01 + 0x0005)
   01E0 70                  949 	ld	(hl),b
                            950 ;main.c:129: possibleYSurface = wouldHitSurf(ballSprite01.y);
   01E1 C5                  951 	push	bc
   01E2 33                  952 	inc	sp
   01E3 CDrADr01            953 	call	_wouldHitSurf
   01E6 33                  954 	inc	sp
   01E7 21rF6r00            955 	ld	hl,#_possibleYSurface
   01EA 73                  956 	ld	(hl),e
                            957 ;main.c:135: moveGameCharacter(&ballSprite01,ballSprite01.x, possibleYSurface);
   01EB 01rFEr00            958 	ld	bc,#_ballSprite01 + 4
   01EE 0A                  959 	ld	a,(bc)
   01EF 47                  960 	ld	b,a
                            961 ;main.c:132: if(possibleYSurface == floorYPosition)
   01F0 7E                  962 	ld	a,(hl)
   01F1 21rF5r00            963 	ld	hl,#_floorYPosition
   01F4 96                  964 	sub	a, (hl)
   01F5 20 17               965 	jr	NZ,00104$
                            966 ;main.c:134: jumping = 0;
   01F7 21rF2r00            967 	ld	hl,#_jumping
   01FA 36 00               968 	ld	(hl),#0x00
                            969 ;main.c:135: moveGameCharacter(&ballSprite01,ballSprite01.x, possibleYSurface);
   01FC 21rF6r00            970 	ld	hl,#_possibleYSurface
   01FF 7E                  971 	ld	a,(hl)
   0200 F5                  972 	push	af
   0201 33                  973 	inc	sp
   0202 C5                  974 	push	bc
   0203 33                  975 	inc	sp
   0204 21rFAr00            976 	ld	hl,#_ballSprite01
   0207 E5                  977 	push	hl
   0208 CDrBAr00            978 	call	_moveGameCharacter
   020B E8 04               979 	add	sp, #4
   020D C9                  980 	ret
   020E                     981 00104$:
                            982 ;main.c:140: moveGameCharacter(&ballSprite01,ballSprite01.x,ballSprite01.y);
   020E 11rFFr00            983 	ld	de, #(_ballSprite01 + 0x0005) + 0
   0211 1A                  984 	ld	a,(de)
   0212 4F                  985 	ld	c,a
   0213 F5                  986 	push	af
   0214 33                  987 	inc	sp
   0215 C5                  988 	push	bc
   0216 33                  989 	inc	sp
   0217 21rFAr00            990 	ld	hl,#_ballSprite01
   021A E5                  991 	push	hl
   021B CDrBAr00            992 	call	_moveGameCharacter
   021E E8 04               993 	add	sp, #4
   0220 C9                  994 	ret
                            995 ;main.c:144: INT8 keyTicked(UINT8 jPad)
                            996 ;	---------------------------------
                            997 ; Function keyTicked
                            998 ; ---------------------------------
   0221                     999 _keyTicked::
                           1000 ;main.c:147: if(jPad == J_A)
   0221 F8 02              1001 	ldhl	sp,#2
   0223 7E                 1002 	ld	a,(hl)
   0224 D6 10              1003 	sub	a, #0x10
   0226 20 04              1004 	jr	NZ,00122$
   0228 3E 01              1005 	ld	a,#0x01
   022A 18 01              1006 	jr	00123$
   022C                    1007 00122$:
   022C AF                 1008 	xor	a,a
   022D                    1009 00123$:
   022D B7                 1010 	or	a, a
   022E 28 07              1011 	jr	Z,00106$
                           1012 ;main.c:150: result = 1;
   0230 21rF9r00           1013 	ld	hl,#_result
   0233 36 01              1014 	ld	(hl),#0x01
   0235 18 0B              1015 	jr	00107$
   0237                    1016 00106$:
                           1017 ;main.c:153: else if(jPad != J_A)
   0237 B7                 1018 	or	a, a
   0238 20 08              1019 	jr	NZ,00107$
                           1020 ;main.c:155: if(jPad == J_A)
   023A B7                 1021 	or	a, a
   023B 28 05              1022 	jr	Z,00107$
                           1023 ;main.c:157: result = 0;
   023D 21rF9r00           1024 	ld	hl,#_result
   0240 36 00              1025 	ld	(hl),#0x00
   0242                    1026 00107$:
                           1027 ;main.c:161: return result;
   0242 21rF9r00           1028 	ld	hl,#_result
   0245 5E                 1029 	ld	e,(hl)
   0246 C9                 1030 	ret
                           1031 ;main.c:166: void jumpSound()
                           1032 ;	---------------------------------
                           1033 ; Function jumpSound
                           1034 ; ---------------------------------
   0247                    1035 _jumpSound::
                           1036 ;main.c:168: NR10_REG = 0x16;
   0247 21 10 FF           1037 	ld	hl,#0xff10
   024A 36 16              1038 	ld	(hl),#0x16
                           1039 ;main.c:169: NR11_REG = 0x40;
   024C 2E 11              1040 	ld	l, #0x11
   024E 36 40              1041 	ld	(hl),#0x40
                           1042 ;main.c:170: NR12_REG = 0x73;
   0250 2E 12              1043 	ld	l, #0x12
   0252 36 73              1044 	ld	(hl),#0x73
                           1045 ;main.c:171: NR13_REG = 0x00;
   0254 2E 13              1046 	ld	l, #0x13
   0256 36 00              1047 	ld	(hl),#0x00
                           1048 ;main.c:172: NR14_REG = 0xC3;
   0258 2E 14              1049 	ld	l, #0x14
   025A 36 C3              1050 	ld	(hl),#0xc3
   025C C9                 1051 	ret
                           1052 ;main.c:174: void main()
                           1053 ;	---------------------------------
                           1054 ; Function main
                           1055 ; ---------------------------------
   025D                    1056 _main::
                           1057 ;main.c:177: setupBallSprite01();
   025D CDr38r01           1058 	call	_setupBallSprite01
                           1059 ;main.c:180: jumping = 0;
   0260 21rF2r00           1060 	ld	hl,#_jumping
   0263 36 00              1061 	ld	(hl),#0x00
                           1062 ;main.c:183: NR52_REG = 0x80;
   0265 21 26 FF           1063 	ld	hl,#0xff26
   0268 36 80              1064 	ld	(hl),#0x80
                           1065 ;main.c:184: NR50_REG = 0x77;
   026A 2E 24              1066 	ld	l, #0x24
   026C 36 77              1067 	ld	(hl),#0x77
                           1068 ;main.c:185: NR51_REG = 0xFF;
   026E 2E 25              1069 	ld	l, #0x25
   0270 36 FF              1070 	ld	(hl),#0xff
                           1071 ;main.c:187: keyPressed_A = 1;
   0272 21rF0r00           1072 	ld	hl,#_keyPressed_A
   0275 36 01              1073 	ld	(hl),#0x01
                           1074 ;main.c:188: jPad = joypad();
   0277 CDr00r00           1075 	call	_joypad
   027A 21rF8r00           1076 	ld	hl,#_jPad
   027D 73                 1077 	ld	(hl),e
                           1078 ;main.c:191: DISPLAY_ON;
   027E 11 40 FF           1079 	ld	de,#0xff40
   0281 1A                 1080 	ld	a,(de)
   0282 4F                 1081 	ld	c,a
   0283 06 00              1082 	ld	b,#0x00
   0285 79                 1083 	ld	a,c
   0286 CB FF              1084 	set	7, a
   0288 4F                 1085 	ld	c,a
   0289 21 40 FF           1086 	ld	hl,#0xff40
   028C 71                 1087 	ld	(hl),c
                           1088 ;main.c:192: SHOW_SPRITES;
   028D 11 40 FF           1089 	ld	de,#0xff40
   0290 1A                 1090 	ld	a,(de)
   0291 4F                 1091 	ld	c,a
   0292 06 00              1092 	ld	b,#0x00
   0294 79                 1093 	ld	a,c
   0295 CB CF              1094 	set	1, a
   0297 4F                 1095 	ld	c,a
   0298 2E 40              1096 	ld	l, #0x40
   029A 71                 1097 	ld	(hl),c
                           1098 ;main.c:194: while(1)
   029B                    1099 00124$:
                           1100 ;main.c:198: if((joypad() & J_A || jumping == 1) && keyPressed_A == 1)
   029B CDr00r00           1101 	call	_joypad
   029E 0E 00              1102 	ld	c,#0x00
   02A0 CB 63              1103 	bit	4, e
   02A2 20 07              1104 	jr	NZ,00109$
   02A4 21rF2r00           1105 	ld	hl,#_jumping
   02A7 7E                 1106 	ld	a,(hl)
   02A8 3D                 1107 	dec	a
   02A9 20 26              1108 	jr	NZ,00106$
   02AB                    1109 00109$:
   02AB 21rF0r00           1110 	ld	hl,#_keyPressed_A
   02AE 7E                 1111 	ld	a,(hl)
   02AF 3D                 1112 	dec	a
   02B0 20 1F              1113 	jr	NZ,00106$
                           1114 ;main.c:201: jump();	
   02B2 CDrBBr01           1115 	call	_jump
                           1116 ;main.c:202: jumpSound();
   02B5 CDr47r02           1117 	call	_jumpSound
                           1118 ;main.c:203: gameBallStaticStretched();
   02B8 CDr35r00           1119 	call	_gameBallStaticStretched
                           1120 ;main.c:204: if(jumping == 0)
   02BB 21rF2r00           1121 	ld	hl,#_jumping
   02BE 7E                 1122 	ld	a,(hl)
   02BF B7                 1123 	or	a, a
   02C0 20 1C              1124 	jr	NZ,00107$
                           1125 ;main.c:206: gameBallAnimSquashed(500);
   02C2 3E F4              1126 	ld	a,#0xf4
   02C4 F5                 1127 	push	af
   02C5 33                 1128 	inc	sp
   02C6 CDr7Fr00           1129 	call	_gameBallAnimSquashed
   02C9 33                 1130 	inc	sp
                           1131 ;main.c:207: keyPressed_A = 0;
   02CA 21rF0r00           1132 	ld	hl,#_keyPressed_A
   02CD 36 00              1133 	ld	(hl),#0x00
   02CF 18 0D              1134 	jr	00107$
   02D1                    1135 00106$:
                           1136 ;main.c:211: else if(joypad() != J_A)
   02D1 CDr00r00           1137 	call	_joypad
   02D4 7B                 1138 	ld	a,e
   02D5 D6 10              1139 	sub	a, #0x10
   02D7 28 05              1140 	jr	Z,00107$
                           1141 ;main.c:213: keyPressed_A = 1;
   02D9 21rF0r00           1142 	ld	hl,#_keyPressed_A
   02DC 36 01              1143 	ld	(hl),#0x01
   02DE                    1144 00107$:
                           1145 ;main.c:217: if((joypad() & J_RIGHT) && keyPressed_RIGHT == 1)
   02DE CDr00r00           1146 	call	_joypad
   02E1 0E 00              1147 	ld	c,#0x00
   02E3 CB 43              1148 	bit	0, e
   02E5 CAr2Cr03           1149 	jp	Z,00117$
   02E8 21rF1r00           1150 	ld	hl,#_keyPressed_RIGHT
   02EB 7E                 1151 	ld	a,(hl)
   02EC 3D                 1152 	dec	a
   02ED C2r2Cr03           1153 	jp	NZ,00117$
                           1154 ;main.c:220: ballSprite01.x += 3;
   02F0 FArFEr00           1155 	ld	a, (#(_ballSprite01 + 0x0004) + 0)
   02F3 4F                 1156 	ld	c,a
   02F4 0C                 1157 	inc	c
   02F5 0C                 1158 	inc	c
   02F6 0C                 1159 	inc	c
   02F7 21rFEr00           1160 	ld	hl,#(_ballSprite01 + 0x0004)
   02FA 71                 1161 	ld	(hl),c
                           1162 ;main.c:221: moveGameCharacter(&ballSprite01, ballSprite01.x, ballSprite01.y);
   02FB 11rFFr00           1163 	ld	de, #(_ballSprite01 + 0x0005) + 0
   02FE 1A                 1164 	ld	a,(de)
   02FF 47                 1165 	ld	b,a
   0300 C5                 1166 	push	bc
   0301 33                 1167 	inc	sp
   0302 79                 1168 	ld	a,c
   0303 F5                 1169 	push	af
   0304 33                 1170 	inc	sp
   0305 21rFAr00           1171 	ld	hl,#_ballSprite01
   0308 E5                 1172 	push	hl
   0309 CDrBAr00           1173 	call	_moveGameCharacter
   030C E8 04              1174 	add	sp, #4
                           1175 ;main.c:222: gameBallAnimRollLoop();
   030E CDr10r00           1176 	call	_gameBallAnimRollLoop
                           1177 ;main.c:223: if(jumping == 0)
   0311 21rF2r00           1178 	ld	hl,#_jumping
   0314 7E                 1179 	ld	a,(hl)
   0315 B7                 1180 	or	a, a
   0316 20 05              1181 	jr	NZ,00111$
                           1182 ;main.c:225: keyPressed_A = 1;
   0318 21rF0r00           1183 	ld	hl,#_keyPressed_A
   031B 36 01              1184 	ld	(hl),#0x01
   031D                    1185 00111$:
                           1186 ;main.c:227: if(joypad() == 16)
   031D CDr00r00           1187 	call	_joypad
   0320 7B                 1188 	ld	a,e
   0321 D6 10              1189 	sub	a, #0x10
   0323 20 12              1190 	jr	NZ,00118$
                           1191 ;main.c:229: keyPressed_A = 1;
   0325 21rF0r00           1192 	ld	hl,#_keyPressed_A
   0328 36 01              1193 	ld	(hl),#0x01
   032A 18 0B              1194 	jr	00118$
   032C                    1195 00117$:
                           1196 ;main.c:234: else if(joypad() != J_RIGHT)
   032C CDr00r00           1197 	call	_joypad
   032F 1D                 1198 	dec	e
   0330 28 05              1199 	jr	Z,00118$
                           1200 ;main.c:236: keyPressed_RIGHT = 1;
   0332 21rF1r00           1201 	ld	hl,#_keyPressed_RIGHT
   0335 36 01              1202 	ld	(hl),#0x01
   0337                    1203 00118$:
                           1204 ;main.c:238: if((joypad() == J_A) && (joypad() == J_RIGHT))
   0337 CDr00r00           1205 	call	_joypad
   033A 7B                 1206 	ld	a,e
   033B D6 10              1207 	sub	a, #0x10
   033D 20 03              1208 	jr	NZ,00121$
   033F CDr00r00           1209 	call	_joypad
   0342                    1210 00121$:
                           1211 ;main.c:242: performantDelay(2);
   0342 3E 02              1212 	ld	a,#0x02
   0344 F5                 1213 	push	af
   0345 33                 1214 	inc	sp
   0346 CDr00r00           1215 	call	_performantDelay
   0349 33                 1216 	inc	sp
   034A C3r9Br02           1217 	jp	00124$
   034D C9                 1218 	ret
                           1219 	.area _CODE
                           1220 	.area _CABS (ABS)
